(imatplotlib.font_manager
FontManager
p1
(dp2
S'afm_lookup_cache'
p3
(dp4
sS'ttflist'
p5
(lp6
ccopy_reg
_reconstructor
p7
(cmatplotlib.font_manager
FontEntry
p8
c__builtin__
object
p9
NtRp10
(dp11
S'style'
p12
S'normal'
p13
sS'name'
p14
S'cmex10'
p15
sS'weight'
p16
I400
sS'stretch'
p17
g13
sS'variant'
p18
g13
sS'fname'
p19
S'/System/Library/Frameworks/Python.framework/Versions/2.7/Extras/lib/python/matplotlib/mpl-data/fonts/ttf/cmex10.ttf'
p20
sS'size'
p21
S'scalable'
p22
sbag7
(g8
g9
NtRp23
(dp24
g12
S'oblique'
p25
sg14
S'Bitstream Vera Sans'
p26
sg16
I700
sg17
g13
sg18
g13
sg19
S'/System/Library/Frameworks/Python.framework/Versions/2.7/Extras/lib/python/matplotlib/mpl-data/fonts/ttf/VeraBI.ttf'
p27
sg21
g22
sbag7
(g8
g9
NtRp28
(dp29
g12
g13
sg14
S'STIXNonUnicode'
p30
sg16
I400
sg17
g13
sg18
g13
sg19
S'/System/Library/Frameworks/Python.framework/Versions/2.7/Extras/lib/python/matplotlib/mpl-data/fonts/ttf/STIXNonUni.ttf'
p31
sg21
g22
sbag7
(g8
g9
NtRp32
(dp33
g12
g13
sg14
S'STIXNonUnicode'
p34
sg16
I700
sg17
g13
sg18
g13
sg19
S'/System/Library/Frameworks/Python.framework/Versions/2.7/Extras/lib/python/matplotlib/mpl-data/fonts/ttf/STIXNonUniBol.ttf'
p35
sg21
g22
sbag7
(g8
g9
NtRp36
(dp37
g12
g13
sg14
S'Bitstream Vera Sans Mono'
p38
sg16
I700
sg17
g13
sg18
g13
sg19
S'/System/Library/Frameworks/Python.framework/Versions/2.7/Extras/lib/python/matplotlib/mpl-data/fonts/ttf/VeraMoBd.ttf'
p39
sg21
g22
sbag7
(g8
g9
NtRp40
(dp41
g12
g13
sg14
S'cmr10'
p42
sg16
I400
sg17
g13
sg18
g13
sg19
S'/System/Library/Frameworks/Python.framework/Versions/2.7/Extras/lib/python/matplotlib/mpl-data/fonts/ttf/cmr10.ttf'
p43
sg21
g22
sbag7
(g8
g9
NtRp44
(dp45
g12
g13
sg14
S'STIXGeneral'
p46
sg16
I400
sg17
g13
sg18
g13
sg19
S'/System/Library/Frameworks/Python.framework/Versions/2.7/Extras/lib/python/matplotlib/mpl-data/fonts/ttf/STIXGeneral.ttf'
p47
sg21
g22
sbag7
(g8
g9
NtRp48
(dp49
g12
g25
sg14
S'Bitstream Vera Sans Mono'
p50
sg16
I400
sg17
g13
sg18
g13
sg19
S'/System/Library/Frameworks/Python.framework/Versions/2.7/Extras/lib/python/matplotlib/mpl-data/fonts/ttf/VeraMoIt.ttf'
p51
sg21
g22
sbag7
(g8
g9
NtRp52
(dp53
g12
g13
sg14
S'Bitstream Vera Serif'
p54
sg16
I400
sg17
g13
sg18
g13
sg19
S'/System/Library/Frameworks/Python.framework/Versions/2.7/Extras/lib/python/matplotlib/mpl-data/fonts/ttf/VeraSe.ttf'
p55
sg21
g22
sbag7
(g8
g9
NtRp56
(dp57
g12
g13
sg14
S'STIXSizeFiveSym'
p58
sg16
I400
sg17
g13
sg18
g13
sg19
S'/System/Library/Frameworks/Python.framework/Versions/2.7/Extras/lib/python/matplotlib/mpl-data/fonts/ttf/STIXSizFiveSymReg.ttf'
p59
sg21
g22
sbag7
(g8
g9
NtRp60
(dp61
g12
g13
sg14
S'Bitstream Vera Sans Mono'
p62
sg16
I400
sg17
g13
sg18
g13
sg19
S'/System/Library/Frameworks/Python.framework/Versions/2.7/Extras/lib/python/matplotlib/mpl-data/fonts/ttf/VeraMono.ttf'
p63
sg21
g22
sbag7
(g8
g9
NtRp64
(dp65
g12
g25
sg14
S'Bitstream Vera Sans Mono'
p66
sg16
I700
sg17
g13
sg18
g13
sg19
S'/System/Library/Frameworks/Python.framework/Versions/2.7/Extras/lib/python/matplotlib/mpl-data/fonts/ttf/VeraMoBI.ttf'
p67
sg21
g22
sbag7
(g8
g9
NtRp68
(dp69
g12
g13
sg14
S'STIXGeneral'
p70
sg16
I700
sg17
g13
sg18
g13
sg19
S'/System/Library/Frameworks/Python.framework/Versions/2.7/Extras/lib/python/matplotlib/mpl-data/fonts/ttf/STIXGeneralBol.ttf'
p71
sg21
g22
sbag7
(g8
g9
NtRp72
(dp73
g12
S'italic'
p74
sg14
S'STIXGeneral'
p75
sg16
I400
sg17
g13
sg18
g13
sg19
S'/System/Library/Frameworks/Python.framework/Versions/2.7/Extras/lib/python/matplotlib/mpl-data/fonts/ttf/STIXGeneralItalic.ttf'
p76
sg21
g22
sbag7
(g8
g9
NtRp77
(dp78
g12
g13
sg14
S'STIXSizeFourSym'
p79
sg16
I400
sg17
g13
sg18
g13
sg19
S'/System/Library/Frameworks/Python.framework/Versions/2.7/Extras/lib/python/matplotlib/mpl-data/fonts/ttf/STIXSizFourSymReg.ttf'
p80
sg21
g22
sbag7
(g8
g9
NtRp81
(dp82
g12
g13
sg14
S'STIXSizeThreeSym'
p83
sg16
I700
sg17
g13
sg18
g13
sg19
S'/System/Library/Frameworks/Python.framework/Versions/2.7/Extras/lib/python/matplotlib/mpl-data/fonts/ttf/STIXSizThreeSymBol.ttf'
p84
sg21
g22
sbag7
(g8
g9
NtRp85
(dp86
g12
g13
sg14
S'STIXSizeOneSym'
p87
sg16
I700
sg17
g13
sg18
g13
sg19
S'/System/Library/Frameworks/Python.framework/Versions/2.7/Extras/lib/python/matplotlib/mpl-data/fonts/ttf/STIXSizOneSymBol.ttf'
p88
sg21
g22
sbag7
(g8
g9
NtRp89
(dp90
g12
g13
sg14
S'STIXSizeFourSym'
p91
sg16
I700
sg17
g13
sg18
g13
sg19
S'/System/Library/Frameworks/Python.framework/Versions/2.7/Extras/lib/python/matplotlib/mpl-data/fonts/ttf/STIXSizFourSymBol.ttf'
p92
sg21
g22
sbag7
(g8
g9
NtRp93
(dp94
g12
g13
sg14
S'Bitstream Vera Sans'
p95
sg16
I700
sg17
g13
sg18
g13
sg19
S'/System/Library/Frameworks/Python.framework/Versions/2.7/Extras/lib/python/matplotlib/mpl-data/fonts/ttf/VeraBd.ttf'
p96
sg21
g22
sbag7
(g8
g9
NtRp97
(dp98
g12
g13
sg14
S'cmsy10'
p99
sg16
I400
sg17
g13
sg18
g13
sg19
S'/System/Library/Frameworks/Python.framework/Versions/2.7/Extras/lib/python/matplotlib/mpl-data/fonts/ttf/cmsy10.ttf'
p100
sg21
g22
sbag7
(g8
g9
NtRp101
(dp102
g12
g13
sg14
S'STIXSizeTwoSym'
p103
sg16
I400
sg17
g13
sg18
g13
sg19
S'/System/Library/Frameworks/Python.framework/Versions/2.7/Extras/lib/python/matplotlib/mpl-data/fonts/ttf/STIXSizTwoSymReg.ttf'
p104
sg21
g22
sbag7
(g8
g9
NtRp105
(dp106
g12
g74
sg14
S'STIXNonUnicode'
p107
sg16
I700
sg17
g13
sg18
g13
sg19
S'/System/Library/Frameworks/Python.framework/Versions/2.7/Extras/lib/python/matplotlib/mpl-data/fonts/ttf/STIXNonUniBolIta.ttf'
p108
sg21
g22
sbag7
(g8
g9
NtRp109
(dp110
g12
g13
sg14
S'cmb10'
p111
sg16
I400
sg17
g13
sg18
g13
sg19
S'/System/Library/Frameworks/Python.framework/Versions/2.7/Extras/lib/python/matplotlib/mpl-data/fonts/ttf/cmb10.ttf'
p112
sg21
g22
sbag7
(g8
g9
NtRp113
(dp114
g12
g13
sg14
S'cmmi10'
p115
sg16
I400
sg17
g13
sg18
g13
sg19
S'/System/Library/Frameworks/Python.framework/Versions/2.7/Extras/lib/python/matplotlib/mpl-data/fonts/ttf/cmmi10.ttf'
p116
sg21
g22
sbag7
(g8
g9
NtRp117
(dp118
g12
g25
sg14
S'Bitstream Vera Sans'
p119
sg16
I400
sg17
g13
sg18
g13
sg19
S'/System/Library/Frameworks/Python.framework/Versions/2.7/Extras/lib/python/matplotlib/mpl-data/fonts/ttf/VeraIt.ttf'
p120
sg21
g22
sbag7
(g8
g9
NtRp121
(dp122
g12
g13
sg14
S'STIXSizeOneSym'
p123
sg16
I400
sg17
g13
sg18
g13
sg19
S'/System/Library/Frameworks/Python.framework/Versions/2.7/Extras/lib/python/matplotlib/mpl-data/fonts/ttf/STIXSizOneSymReg.ttf'
p124
sg21
g22
sbag7
(g8
g9
NtRp125
(dp126
g12
g13
sg14
S'Bitstream Vera Sans'
p127
sg16
I400
sg17
g13
sg18
g13
sg19
S'/System/Library/Frameworks/Python.framework/Versions/2.7/Extras/lib/python/matplotlib/mpl-data/fonts/ttf/Vera.ttf'
p128
sg21
g22
sbag7
(g8
g9
NtRp129
(dp130
g12
g13
sg14
S'cmss10'
p131
sg16
I400
sg17
g13
sg18
g13
sg19
S'/System/Library/Frameworks/Python.framework/Versions/2.7/Extras/lib/python/matplotlib/mpl-data/fonts/ttf/cmss10.ttf'
p132
sg21
g22
sbag7
(g8
g9
NtRp133
(dp134
g12
g13
sg14
S'Bitstream Vera Serif'
p135
sg16
I700
sg17
g13
sg18
g13
sg19
S'/System/Library/Frameworks/Python.framework/Versions/2.7/Extras/lib/python/matplotlib/mpl-data/fonts/ttf/VeraSeBd.ttf'
p136
sg21
g22
sbag7
(g8
g9
NtRp137
(dp138
g12
g13
sg14
S'STIXSizeTwoSym'
p139
sg16
I700
sg17
g13
sg18
g13
sg19
S'/System/Library/Frameworks/Python.framework/Versions/2.7/Extras/lib/python/matplotlib/mpl-data/fonts/ttf/STIXSizTwoSymBol.ttf'
p140
sg21
g22
sbag7
(g8
g9
NtRp141
(dp142
g12
g74
sg14
S'STIXNonUnicode'
p143
sg16
I400
sg17
g13
sg18
g13
sg19
S'/System/Library/Frameworks/Python.framework/Versions/2.7/Extras/lib/python/matplotlib/mpl-data/fonts/ttf/STIXNonUniIta.ttf'
p144
sg21
g22
sbag7
(g8
g9
NtRp145
(dp146
g12
g13
sg14
S'cmtt10'
p147
sg16
I400
sg17
g13
sg18
g13
sg19
S'/System/Library/Frameworks/Python.framework/Versions/2.7/Extras/lib/python/matplotlib/mpl-data/fonts/ttf/cmtt10.ttf'
p148
sg21
g22
sbag7
(g8
g9
NtRp149
(dp150
g12
g74
sg14
S'STIXGeneral'
p151
sg16
I700
sg17
g13
sg18
g13
sg19
S'/System/Library/Frameworks/Python.framework/Versions/2.7/Extras/lib/python/matplotlib/mpl-data/fonts/ttf/STIXGeneralBolIta.ttf'
p152
sg21
g22
sbag7
(g8
g9
NtRp153
(dp154
g12
g13
sg14
S'STIXSizeThreeSym'
p155
sg16
I400
sg17
g13
sg18
g13
sg19
S'/System/Library/Frameworks/Python.framework/Versions/2.7/Extras/lib/python/matplotlib/mpl-data/fonts/ttf/STIXSizThreeSymReg.ttf'
p156
sg21
g22
sbag7
(g8
g9
NtRp157
(dp158
g12
g13
sg14
S'Noto Sans Caucasian Albanian'
p159
sg16
I400
sg17
g13
sg18
g13
sg19
S'/System/Library/Fonts/Supplemental/NotoSansCaucasianAlbanian-Regular.ttf'
p160
sg21
g22
sbag7
(g8
g9
NtRp161
(dp162
g12
g13
sg14
S'Party LET'
p163
sg16
I400
sg17
g13
sg18
g13
sg19
S'/System/Library/Fonts/Supplemental/PartyLET-plain.ttf'
p164
sg21
g22
sbag7
(g8
g9
NtRp165
(dp166
g12
g13
sg14
S'Trattatello'
p167
sg16
I400
sg17
g13
sg18
g13
sg19
S'/System/Library/Fonts/Supplemental/Trattatello.ttf'
p168
sg21
g22
sbag7
(g8
g9
NtRp169
(dp170
g12
g13
sg14
S'Arial Narrow'
p171
sg16
I400
sg17
S'condensed'
p172
sg18
g13
sg19
S'/System/Library/Fonts/Supplemental/Arial Narrow.ttf'
p173
sg21
g22
sbag7
(g8
g9
NtRp174
(dp175
g12
g13
sg14
S'STIXSizeTwoSym'
p176
sg16
I700
sg17
g13
sg18
g13
sg19
S'/System/Library/Fonts/Supplemental/STIXSizTwoSymBol.otf'
p177
sg21
g22
sbag7
(g8
g9
NtRp178
(dp179
g12
g13
sg14
S'Noto Sans Cypriot'
p180
sg16
I400
sg17
g13
sg18
g13
sg19
S'/System/Library/Fonts/Supplemental/NotoSansCypriot-Regular.ttf'
p181
sg21
g22
sbag7
(g8
g9
NtRp182
(dp183
g12
g13
sg14
S'System Font'
p184
sg16
I400
sg17
g13
sg18
g13
sg19
S'/System/Library/Fonts/SFNSItalic.ttf'
p185
sg21
g22
sbag7
(g8
g9
NtRp186
(dp187
g12
g13
sg14
S'Mishafi'
p188
sg16
I400
sg17
g13
sg18
g13
sg19
S'/System/Library/Fonts/Supplemental/Mishafi.ttf'
p189
sg21
g22
sbag7
(g8
g9
NtRp190
(dp191
g12
g13
sg14
S'Arial Unicode MS'
p192
sg16
I400
sg17
g13
sg18
g13
sg19
S'/Library/Fonts/Arial Unicode.ttf'
p193
sg21
g22
sbag7
(g8
g9
NtRp194
(dp195
g12
g13
sg14
S'Noto Sans Thaana'
p196
sg16
I400
sg17
g13
sg18
g13
sg19
S'/System/Library/Fonts/Supplemental/NotoSansThaana-Regular.ttf'
p197
sg21
g22
sbag7
(g8
g9
NtRp198
(dp199
g12
g74
sg14
S'STIXGeneral'
p200
sg16
I700
sg17
g13
sg18
g13
sg19
S'/System/Library/Fonts/Supplemental/STIXGeneralBolIta.otf'
p201
sg21
g22
sbag7
(g8
g9
NtRp202
(dp203
g12
g13
sg14
S'Comic Sans MS'
p204
sg16
I400
sg17
g13
sg18
g13
sg19
S'/System/Library/Fonts/Supplemental/Comic Sans MS.ttf'
p205
sg21
g22
sbag7
(g8
g9
NtRp206
(dp207
g12
g13
sg14
S'Noto Sans Palmyrene'
p208
sg16
I400
sg17
g13
sg18
g13
sg19
S'/System/Library/Fonts/Supplemental/NotoSansPalmyrene-Regular.ttf'
p209
sg21
g22
sbag7
(g8
g9
NtRp210
(dp211
g12
g74
sg14
S'Courier New'
p212
sg16
I400
sg17
g13
sg18
g13
sg19
S'/System/Library/Fonts/Supplemental/Courier New Italic.ttf'
p213
sg21
g22
sbag7
(g8
g9
NtRp214
(dp215
g12
g13
sg14
S'Krungthep'
p216
sg16
I400
sg17
g13
sg18
g13
sg19
S'/System/Library/Fonts/Supplemental/Krungthep.ttf'
p217
sg21
g22
sbag7
(g8
g9
NtRp218
(dp219
g12
g13
sg14
S'STIXSizeThreeSym'
p220
sg16
I700
sg17
g13
sg18
g13
sg19
S'/System/Library/Fonts/Supplemental/STIXSizThreeSymBol.otf'
p221
sg21
g22
sbag7
(g8
g9
NtRp222
(dp223
g12
g13
sg14
S'Noto Sans Siddham'
p224
sg16
I400
sg17
g13
sg18
g13
sg19
S'/System/Library/Fonts/Supplemental/NotoSansSiddham-Regular.ttf'
p225
sg21
g22
sbag7
(g8
g9
NtRp226
(dp227
g12
g13
sg14
S'Gurmukhi MT'
p228
sg16
I400
sg17
g13
sg18
g13
sg19
S'/System/Library/Fonts/Supplemental/Gurmukhi.ttf'
p229
sg21
g22
sbag7
(g8
g9
NtRp230
(dp231
g12
g13
sg14
S'Noto Sans Inscriptional Parthian'
p232
sg16
I400
sg17
g13
sg18
g13
sg19
S'/System/Library/Fonts/Supplemental/NotoSansInscriptionalParthian-Regular.ttf'
p233
sg21
g22
sbag7
(g8
g9
NtRp234
(dp235
g12
g13
sg14
S'STIXIntegralsSm'
p236
sg16
I700
sg17
g13
sg18
g13
sg19
S'/System/Library/Fonts/Supplemental/STIXIntSmBol.otf'
p237
sg21
g22
sbag7
(g8
g9
NtRp238
(dp239
g12
g13
sg14
S'STIXNonUnicode'
p240
sg16
I700
sg17
g13
sg18
g13
sg19
S'/System/Library/Fonts/Supplemental/STIXNonUniBol.otf'
p241
sg21
g22
sbag7
(g8
g9
NtRp242
(dp243
g12
g13
sg14
S'STIXIntegralsUp'
p244
sg16
I700
sg17
g13
sg18
g13
sg19
S'/System/Library/Fonts/Supplemental/STIXIntUpBol.otf'
p245
sg21
g22
sbag7
(g8
g9
NtRp246
(dp247
g12
g13
sg14
S'Microsoft Sans Serif'
p248
sg16
I400
sg17
g13
sg18
g13
sg19
S'/System/Library/Fonts/Supplemental/Microsoft Sans Serif.ttf'
p249
sg21
g22
sbag7
(g8
g9
NtRp250
(dp251
g12
g13
sg14
S'Chalkduster'
p252
sg16
I400
sg17
g13
sg18
g13
sg19
S'/System/Library/Fonts/Supplemental/Chalkduster.ttf'
p253
sg21
g22
sbag7
(g8
g9
NtRp254
(dp255
g12
g13
sg14
S'Trebuchet MS'
p256
sg16
I700
sg17
g13
sg18
g13
sg19
S'/System/Library/Fonts/Supplemental/Trebuchet MS Bold.ttf'
p257
sg21
g22
sbag7
(g8
g9
NtRp258
(dp259
g12
g13
sg14
S'Zapf Dingbats'
p260
sg16
I400
sg17
g13
sg18
g13
sg19
S'/System/Library/Fonts/ZapfDingbats.ttf'
p261
sg21
g22
sbag7
(g8
g9
NtRp262
(dp263
g12
g74
sg14
S'STIXGeneral'
p264
sg16
I400
sg17
g13
sg18
g13
sg19
S'/System/Library/Fonts/Supplemental/STIXGeneralItalic.otf'
p265
sg21
g22
sbag7
(g8
g9
NtRp266
(dp267
g12
g74
sg14
S'Courier New'
p268
sg16
I700
sg17
g13
sg18
g13
sg19
S'/System/Library/Fonts/Supplemental/Courier New Bold Italic.ttf'
p269
sg21
g22
sbag7
(g8
g9
NtRp270
(dp271
g12
g13
sg14
S'Verdana'
p272
sg16
I400
sg17
g13
sg18
g13
sg19
S'/System/Library/Fonts/Supplemental/Verdana.ttf'
p273
sg21
g22
sbag7
(g8
g9
NtRp274
(dp275
g12
g13
sg14
S'Noto Serif Ahom'
p276
sg16
I400
sg17
g13
sg18
g13
sg19
S'/System/Library/Fonts/Supplemental/NotoSerifAhom-Regular.ttf'
p277
sg21
g22
sbag7
(g8
g9
NtRp278
(dp279
g12
g13
sg14
S'Trebuchet MS'
p280
sg16
I400
sg17
g13
sg18
g13
sg19
S'/System/Library/Fonts/Supplemental/Trebuchet MS.ttf'
p281
sg21
g22
sbag7
(g8
g9
NtRp282
(dp283
g12
g13
sg14
S'Noto Sans Cham'
p284
sg16
I400
sg17
g13
sg18
g13
sg19
S'/System/Library/Fonts/Supplemental/NotoSansCham-Regular.ttf'
p285
sg21
g22
sbag7
(g8
g9
NtRp286
(dp287
g12
g74
sg14
S'Arial Narrow'
p288
sg16
I400
sg17
g172
sg18
g13
sg19
S'/System/Library/Fonts/Supplemental/Arial Narrow Italic.ttf'
p289
sg21
g22
sbag7
(g8
g9
NtRp290
(dp291
g12
g74
sg14
S'Georgia'
p292
sg16
I400
sg17
g13
sg18
g13
sg19
S'/System/Library/Fonts/Supplemental/Georgia Italic.ttf'
p293
sg21
g22
sbag7
(g8
g9
NtRp294
(dp295
g12
g13
sg14
S'Tahoma'
p296
sg16
I700
sg17
g13
sg18
g13
sg19
S'/System/Library/Fonts/Supplemental/Tahoma Bold.ttf'
p297
sg21
g22
sbag7
(g8
g9
NtRp298
(dp299
g12
g13
sg14
S'Noto Sans Lisu'
p300
sg16
I400
sg17
g13
sg18
g13
sg19
S'/System/Library/Fonts/Supplemental/NotoSansLisu-Regular.ttf'
p301
sg21
g22
sbag7
(g8
g9
NtRp302
(dp303
g12
g13
sg14
S'Lao Sangam MN'
p304
sg16
I400
sg17
g13
sg18
g13
sg19
S'/System/Library/Fonts/Supplemental/Lao Sangam MN.ttf'
p305
sg21
g22
sbag7
(g8
g9
NtRp306
(dp307
g12
g13
sg14
S'STIXIntegralsUp'
p308
sg16
I400
sg17
g13
sg18
g13
sg19
S'/System/Library/Fonts/Supplemental/STIXIntUpReg.otf'
p309
sg21
g22
sbag7
(g8
g9
NtRp310
(dp311
g12
g13
sg14
S'STIXIntegralsUpSm'
p312
sg16
I400
sg17
g13
sg18
g13
sg19
S'/System/Library/Fonts/Supplemental/STIXIntUpSmReg.otf'
p313
sg21
g22
sbag7
(g8
g9
NtRp314
(dp315
g12
g13
sg14
S'AppleMyungjo'
p316
sg16
I400
sg17
g13
sg18
g13
sg19
S'/System/Library/Fonts/Supplemental/AppleMyungjo.ttf'
p317
sg21
g22
sbag7
(g8
g9
NtRp318
(dp319
g12
g13
sg14
S'Noto Sans Bhaiksuki'
p320
sg16
I400
sg17
g13
sg18
g13
sg19
S'/System/Library/Fonts/Supplemental/NotoSansBhaiksuki-Regular.ttf'
p321
sg21
g22
sbag7
(g8
g9
NtRp322
(dp323
g12
g13
sg14
S'Georgia'
p324
sg16
I400
sg17
g13
sg18
g13
sg19
S'/System/Library/Fonts/Supplemental/Georgia.ttf'
p325
sg21
g22
sbag7
(g8
g9
NtRp326
(dp327
g12
g13
sg14
S'Noto Sans Javanese'
p328
sg16
I400
sg17
g13
sg18
g13
sg19
S'/System/Library/Fonts/Supplemental/NotoSansJavanese-Regular.otf'
p329
sg21
g22
sbag7
(g8
g9
NtRp330
(dp331
g12
g13
sg14
S'Herculanum'
p332
sg16
I400
sg17
g13
sg18
g13
sg19
S'/System/Library/Fonts/Supplemental/Herculanum.ttf'
p333
sg21
g22
sbag7
(g8
g9
NtRp334
(dp335
g12
g13
sg14
S'System Font'
p336
sg16
I400
sg17
g13
sg18
g13
sg19
S'/System/Library/Fonts/SFNS.ttf'
p337
sg21
g22
sbag7
(g8
g9
NtRp338
(dp339
g12
g13
sg14
S'STIXSizeOneSym'
p340
sg16
I700
sg17
g13
sg18
g13
sg19
S'/System/Library/Fonts/Supplemental/STIXSizOneSymBol.otf'
p341
sg21
g22
sbag7
(g8
g9
NtRp342
(dp343
g12
g13
sg14
S'Noto Sans Miao'
p344
sg16
I400
sg17
g13
sg18
g13
sg19
S'/System/Library/Fonts/Supplemental/NotoSansMiao-Regular.ttf'
p345
sg21
g22
sbag7
(g8
g9
NtRp346
(dp347
g12
g13
sg14
S'Noto Sans Tagalog'
p348
sg16
I400
sg17
g13
sg18
g13
sg19
S'/System/Library/Fonts/Supplemental/NotoSansTagalog-Regular.ttf'
p349
sg21
g22
sbag7
(g8
g9
NtRp350
(dp351
g12
g13
sg14
S'Noto Sans Marchen'
p352
sg16
I400
sg17
g13
sg18
g13
sg19
S'/System/Library/Fonts/Supplemental/NotoSansMarchen-Regular.ttf'
p353
sg21
g22
sbag7
(g8
g9
NtRp354
(dp355
g12
g13
sg14
S'Noto Sans Old Permic'
p356
sg16
I400
sg17
g13
sg18
g13
sg19
S'/System/Library/Fonts/Supplemental/NotoSansOldPermic-Regular.ttf'
p357
sg21
g22
sbag7
(g8
g9
NtRp358
(dp359
g12
g13
sg14
S'Noto Sans Syriac'
p360
sg16
I400
sg17
g13
sg18
g13
sg19
S'/System/Library/Fonts/Supplemental/NotoSansSyriac-Regular.ttf'
p361
sg21
g22
sbag7
(g8
g9
NtRp362
(dp363
g12
g74
sg14
S'STIXNonUnicode'
p364
sg16
I400
sg17
g13
sg18
g13
sg19
S'/System/Library/Fonts/Supplemental/STIXNonUniIta.otf'
p365
sg21
g22
sbag7
(g8
g9
NtRp366
(dp367
g12
g13
sg14
S'Apple Symbols'
p368
sg16
I400
sg17
g13
sg18
g13
sg19
S'/System/Library/Fonts/Apple Symbols.ttf'
p369
sg21
g22
sbag7
(g8
g9
NtRp370
(dp371
g12
g13
sg14
S'Noto Sans Kharoshthi'
p372
sg16
I400
sg17
g13
sg18
g13
sg19
S'/System/Library/Fonts/Supplemental/NotoSansKharoshthi-Regular.ttf'
p373
sg21
g22
sbag7
(g8
g9
NtRp374
(dp375
g12
g13
sg14
S'Zapfino'
p376
sg16
I400
sg17
g13
sg18
g13
sg19
S'/System/Library/Fonts/Supplemental/Zapfino.ttf'
p377
sg21
g22
sbag7
(g8
g9
NtRp378
(dp379
g12
g13
sg14
S'Noto Sans Khudawadi'
p380
sg16
I400
sg17
g13
sg18
g13
sg19
S'/System/Library/Fonts/Supplemental/NotoSansKhudawadi-Regular.ttf'
p381
sg21
g22
sbag7
(g8
g9
NtRp382
(dp383
g12
g13
sg14
S'.SF Compact'
p384
sg16
I400
sg17
g13
sg18
g13
sg19
S'/System/Library/Fonts/SFCompact.ttf'
p385
sg21
g22
sbag7
(g8
g9
NtRp386
(dp387
g12
g13
sg14
S'STIXSizeTwoSym'
p388
sg16
I400
sg17
g13
sg18
g13
sg19
S'/System/Library/Fonts/Supplemental/STIXSizTwoSymReg.otf'
p389
sg21
g22
sbag7
(g8
g9
NtRp390
(dp391
g12
g13
sg14
S'Academy Engraved LET'
p392
sg16
I400
sg17
g13
sg18
g13
sg19
S'/System/Library/Fonts/Supplemental/Academy Engraved LET Fonts.ttf'
p393
sg21
g22
sbag7
(g8
g9
NtRp394
(dp395
g12
g13
sg14
S'Noto Sans Brahmi'
p396
sg16
I400
sg17
g13
sg18
g13
sg19
S'/System/Library/Fonts/Supplemental/NotoSansBrahmi-Regular.ttf'
p397
sg21
g22
sbag7
(g8
g9
NtRp398
(dp399
g12
g13
sg14
S'Noto Sans Saurashtra'
p400
sg16
I400
sg17
g13
sg18
g13
sg19
S'/System/Library/Fonts/Supplemental/NotoSansSaurashtra-Regular.ttf'
p401
sg21
g22
sbag7
(g8
g9
NtRp402
(dp403
g12
g74
sg14
S'Arial Narrow'
p404
sg16
I700
sg17
g172
sg18
g13
sg19
S'/System/Library/Fonts/Supplemental/Arial Narrow Bold Italic.ttf'
p405
sg21
g22
sbag7
(g8
g9
NtRp406
(dp407
g12
g13
sg14
S'Noto Sans Pahawh Hmong'
p408
sg16
I400
sg17
g13
sg18
g13
sg19
S'/System/Library/Fonts/Supplemental/NotoSansPahawhHmong-Regular.ttf'
p409
sg21
g22
sbag7
(g8
g9
NtRp410
(dp411
g12
g13
sg14
S'Plantagenet Cherokee'
p412
sg16
I400
sg17
g13
sg18
g13
sg19
S'/System/Library/Fonts/Supplemental/PlantagenetCherokee.ttf'
p413
sg21
g22
sbag7
(g8
g9
NtRp414
(dp415
g12
g13
sg14
S'Noto Sans Ugaritic'
p416
sg16
I400
sg17
g13
sg18
g13
sg19
S'/System/Library/Fonts/Supplemental/NotoSansUgaritic-Regular.ttf'
p417
sg21
g22
sbag7
(g8
g9
NtRp418
(dp419
g12
g13
sg14
S'Apple Braille'
p420
sg16
I400
sg17
g13
sg18
g13
sg19
S'/System/Library/Fonts/Apple Braille Outline 8 Dot.ttf'
p421
sg21
g22
sbag7
(g8
g9
NtRp422
(dp423
g12
g13
sg14
S'Courier New'
p424
sg16
I700
sg17
g13
sg18
g13
sg19
S'/System/Library/Fonts/Supplemental/Courier New Bold.ttf'
p425
sg21
g22
sbag7
(g8
g9
NtRp426
(dp427
g12
g13
sg14
S'Georgia'
p428
sg16
I700
sg17
g13
sg18
g13
sg19
S'/System/Library/Fonts/Supplemental/Georgia Bold.ttf'
p429
sg21
g22
sbag7
(g8
g9
NtRp430
(dp431
g12
g13
sg14
S'Noto Sans Mende Kikakui'
p432
sg16
I400
sg17
g13
sg18
g13
sg19
S'/System/Library/Fonts/Supplemental/NotoSansMendeKikakui-Regular.ttf'
p433
sg21
g22
sbag7
(g8
g9
NtRp434
(dp435
g12
g13
sg14
S'Arial Black'
p436
sg16
I900
sg17
g13
sg18
g13
sg19
S'/System/Library/Fonts/Supplemental/Arial Black.ttf'
p437
sg21
g22
sbag7
(g8
g9
NtRp438
(dp439
g12
g13
sg14
S'Noto Sans Kaithi'
p440
sg16
I400
sg17
g13
sg18
g13
sg19
S'/System/Library/Fonts/Supplemental/NotoSansKaithi-Regular.ttf'
p441
sg21
g22
sbag7
(g8
g9
NtRp442
(dp443
g12
g13
sg14
S'AppleGothic'
p444
sg16
I400
sg17
g13
sg18
g13
sg19
S'/System/Library/Fonts/Supplemental/AppleGothic.ttf'
p445
sg21
g22
sbag7
(g8
g9
NtRp446
(dp447
g12
g13
sg14
S'Noto Sans Avestan'
p448
sg16
I400
sg17
g13
sg18
g13
sg19
S'/System/Library/Fonts/Supplemental/NotoSansAvestan-Regular.ttf'
p449
sg21
g22
sbag7
(g8
g9
NtRp450
(dp451
g12
g13
sg14
S'Noto Sans Buhid'
p452
sg16
I400
sg17
g13
sg18
g13
sg19
S'/System/Library/Fonts/Supplemental/NotoSansBuhid-Regular.ttf'
p453
sg21
g22
sbag7
(g8
g9
NtRp454
(dp455
g12
g13
sg14
S'Noto Sans Hanunoo'
p456
sg16
I400
sg17
g13
sg18
g13
sg19
S'/System/Library/Fonts/Supplemental/NotoSansHanunoo-Regular.ttf'
p457
sg21
g22
sbag7
(g8
g9
NtRp458
(dp459
g12
g13
sg14
S'Noto Sans Glagolitic'
p460
sg16
I400
sg17
g13
sg18
g13
sg19
S'/System/Library/Fonts/Supplemental/NotoSansGlagolitic-Regular.ttf'
p461
sg21
g22
sbag7
(g8
g9
NtRp462
(dp463
g12
g74
sg14
S'Georgia'
p464
sg16
I700
sg17
g13
sg18
g13
sg19
S'/System/Library/Fonts/Supplemental/Georgia Bold Italic.ttf'
p465
sg21
g22
sbag7
(g8
g9
NtRp466
(dp467
g12
g13
sg14
S'STIXIntegralsUpD'
p468
sg16
I400
sg17
g13
sg18
g13
sg19
S'/System/Library/Fonts/Supplemental/STIXIntUpDReg.otf'
p469
sg21
g22
sbag7
(g8
g9
NtRp470
(dp471
g12
g13
sg14
S'Luminari'
p472
sg16
I400
sg17
g13
sg18
g13
sg19
S'/System/Library/Fonts/Supplemental/Luminari.ttf'
p473
sg21
g22
sbag7
(g8
g9
NtRp474
(dp475
g12
g13
sg14
S'Hoefler Text'
p476
sg16
I400
sg17
g13
sg18
g13
sg19
S'/System/Library/Fonts/Supplemental/Hoefler Text Ornaments.ttf'
p477
sg21
g22
sbag7
(g8
g9
NtRp478
(dp479
g12
g13
sg14
S'Noto Sans NKo'
p480
sg16
I400
sg17
g13
sg18
g13
sg19
S'/System/Library/Fonts/Supplemental/NotoSansNKo-Regular.ttf'
p481
sg21
g22
sbag7
(g8
g9
NtRp482
(dp483
g12
g13
sg14
S'Noto Sans Osage'
p484
sg16
I400
sg17
g13
sg18
g13
sg19
S'/System/Library/Fonts/Supplemental/NotoSansOsage-Regular.ttf'
p485
sg21
g22
sbag7
(g8
g9
NtRp486
(dp487
g12
g13
sg14
S'Noto Sans Meetei Mayek'
p488
sg16
I400
sg17
g13
sg18
g13
sg19
S'/System/Library/Fonts/Supplemental/NotoSansMeeteiMayek-Regular.ttf'
p489
sg21
g22
sbag7
(g8
g9
NtRp490
(dp491
g12
g13
sg14
S'Impact'
p492
sg16
I400
sg17
g13
sg18
g13
sg19
S'/System/Library/Fonts/Supplemental/Impact.ttf'
p493
sg21
g22
sbag7
(g8
g9
NtRp494
(dp495
g12
g13
sg14
S'Noto Sans Cuneiform'
p496
sg16
I400
sg17
g13
sg18
g13
sg19
S'/System/Library/Fonts/Supplemental/NotoSansCuneiform-Regular.ttf'
p497
sg21
g22
sbag7
(g8
g9
NtRp498
(dp499
g12
g13
sg14
S'Noto Sans Tai Le'
p500
sg16
I400
sg17
g13
sg18
g13
sg19
S'/System/Library/Fonts/Supplemental/NotoSansTaiLe-Regular.ttf'
p501
sg21
g22
sbag7
(g8
g9
NtRp502
(dp503
g12
g13
sg14
S'.LastResort'
p504
sg16
I400
sg17
g13
sg18
g13
sg19
S'/System/Library/Fonts/LastResort.otf'
p505
sg21
g22
sbag7
(g8
g9
NtRp506
(dp507
g12
g13
sg14
S'Noto Sans Lydian'
p508
sg16
I400
sg17
g13
sg18
g13
sg19
S'/System/Library/Fonts/Supplemental/NotoSansLydian-Regular.ttf'
p509
sg21
g22
sbag7
(g8
g9
NtRp510
(dp511
g12
g13
sg14
S'Noto Sans Takri'
p512
sg16
I400
sg17
g13
sg18
g13
sg19
S'/System/Library/Fonts/Supplemental/NotoSansTakri-Regular.ttf'
p513
sg21
g22
sbag7
(g8
g9
NtRp514
(dp515
g12
g13
sg14
S'Silom'
p516
sg16
I400
sg17
g13
sg18
g13
sg19
S'/System/Library/Fonts/Supplemental/Silom.ttf'
p517
sg21
g22
sbag7
(g8
g9
NtRp518
(dp519
g12
g13
sg14
S'Noto Sans Old Persian'
p520
sg16
I400
sg17
g13
sg18
g13
sg19
S'/System/Library/Fonts/Supplemental/NotoSansOldPersian-Regular.ttf'
p521
sg21
g22
sbag7
(g8
g9
NtRp522
(dp523
g12
g13
sg14
S'Khmer Sangam MN'
p524
sg16
I400
sg17
g13
sg18
g13
sg19
S'/System/Library/Fonts/Supplemental/Khmer Sangam MN.ttf'
p525
sg21
g22
sbag7
(g8
g9
NtRp526
(dp527
g12
g13
sg14
S'Noto Sans Osmanya'
p528
sg16
I400
sg17
g13
sg18
g13
sg19
S'/System/Library/Fonts/Supplemental/NotoSansOsmanya-Regular.ttf'
p529
sg21
g22
sbag7
(g8
g9
NtRp530
(dp531
g12
g13
sg14
S'Noto Sans PhagsPa'
p532
sg16
I400
sg17
g13
sg18
g13
sg19
S'/System/Library/Fonts/Supplemental/NotoSansPhagsPa-Regular.ttf'
p533
sg21
g22
sbag7
(g8
g9
NtRp534
(dp535
g12
g13
sg14
S'Skia'
p536
sg16
I400
sg17
g13
sg18
g13
sg19
S'/System/Library/Fonts/Supplemental/Skia.ttf'
p537
sg21
g22
sbag7
(g8
g9
NtRp538
(dp539
g12
g13
sg14
S'Noto Sans Multani'
p540
sg16
I400
sg17
g13
sg18
g13
sg19
S'/System/Library/Fonts/Supplemental/NotoSansMultani-Regular.ttf'
p541
sg21
g22
sbag7
(g8
g9
NtRp542
(dp543
g12
g74
sg14
S'Arial'
p544
sg16
I400
sg17
g13
sg18
g13
sg19
S'/System/Library/Fonts/Supplemental/Arial Italic.ttf'
p545
sg21
g22
sbag7
(g8
g9
NtRp546
(dp547
g12
g13
sg14
S'Noto Sans Sundanese'
p548
sg16
I400
sg17
g13
sg18
g13
sg19
S'/System/Library/Fonts/Supplemental/NotoSansSundanese-Regular.ttf'
p549
sg21
g22
sbag7
(g8
g9
NtRp550
(dp551
g12
g13
sg14
S'Wingdings 2'
p552
sg16
I400
sg17
g13
sg18
g13
sg19
S'/System/Library/Fonts/Supplemental/Wingdings 2.ttf'
p553
sg21
g22
sbag7
(g8
g9
NtRp554
(dp555
g12
g13
sg14
S'STIXGeneral'
p556
sg16
I400
sg17
g13
sg18
g13
sg19
S'/System/Library/Fonts/Supplemental/STIXGeneral.otf'
p557
sg21
g22
sbag7
(g8
g9
NtRp558
(dp559
g12
g13
sg14
S'.SF NS Rounded'
p560
sg16
I400
sg17
g13
sg18
g13
sg19
S'/System/Library/Fonts/SFNSRounded.ttf'
p561
sg21
g22
sbag7
(g8
g9
NtRp562
(dp563
g12
g13
sg14
S'DIN Alternate'
p564
sg16
I700
sg17
g13
sg18
g13
sg19
S'/System/Library/Fonts/Supplemental/DIN Alternate Bold.ttf'
p565
sg21
g22
sbag7
(g8
g9
NtRp566
(dp567
g12
g13
sg14
S'Noto Sans Wancho'
p568
sg16
I400
sg17
g13
sg18
g13
sg19
S'/System/Library/Fonts/Supplemental/NotoSansWancho-Regular.ttf'
p569
sg21
g22
sbag7
(g8
g9
NtRp570
(dp571
g12
g13
sg14
S'STIXSizeFourSym'
p572
sg16
I700
sg17
g13
sg18
g13
sg19
S'/System/Library/Fonts/Supplemental/STIXSizFourSymBol.otf'
p573
sg21
g22
sbag7
(g8
g9
NtRp574
(dp575
g12
g13
sg14
S'Noto Sans Old South Arabian'
p576
sg16
I400
sg17
g13
sg18
g13
sg19
S'/System/Library/Fonts/Supplemental/NotoSansOldSouthArabian-Regular.ttf'
p577
sg21
g22
sbag7
(g8
g9
NtRp578
(dp579
g12
g13
sg14
S'Noto Sans Coptic'
p580
sg16
I400
sg17
g13
sg18
g13
sg19
S'/System/Library/Fonts/Supplemental/NotoSansCoptic-Regular.ttf'
p581
sg21
g22
sbag7
(g8
g9
NtRp582
(dp583
g12
g13
sg14
S'STIXIntegralsUpSm'
p584
sg16
I700
sg17
g13
sg18
g13
sg19
S'/System/Library/Fonts/Supplemental/STIXIntUpSmBol.otf'
p585
sg21
g22
sbag7
(g8
g9
NtRp586
(dp587
g12
g13
sg14
S'Apple Braille'
p588
sg16
I400
sg17
g13
sg18
g13
sg19
S'/System/Library/Fonts/Apple Braille Pinpoint 8 Dot.ttf'
p589
sg21
g22
sbag7
(g8
g9
NtRp590
(dp591
g12
g13
sg14
S'Bodoni Ornaments'
p592
sg16
I400
sg17
g13
sg18
g13
sg19
S'/System/Library/Fonts/Supplemental/Bodoni Ornaments.ttf'
p593
sg21
g22
sbag7
(g8
g9
NtRp594
(dp595
g12
g13
sg14
S'Apple Braille'
p596
sg16
I400
sg17
g13
sg18
g13
sg19
S'/System/Library/Fonts/Apple Braille Outline 6 Dot.ttf'
p597
sg21
g22
sbag7
(g8
g9
NtRp598
(dp599
g12
g13
sg14
S'Noto Sans Ogham'
p600
sg16
I400
sg17
g13
sg18
g13
sg19
S'/System/Library/Fonts/Supplemental/NotoSansOgham-Regular.ttf'
p601
sg21
g22
sbag7
(g8
g9
NtRp602
(dp603
g12
g13
sg14
S'Ayuthaya'
p604
sg16
I400
sg17
g13
sg18
g13
sg19
S'/System/Library/Fonts/Supplemental/Ayuthaya.ttf'
p605
sg21
g22
sbag7
(g8
g9
NtRp606
(dp607
g12
g74
sg14
S'Arial'
p608
sg16
I700
sg17
g13
sg18
g13
sg19
S'/System/Library/Fonts/Supplemental/Arial Bold Italic.ttf'
p609
sg21
g22
sbag7
(g8
g9
NtRp610
(dp611
g12
g13
sg14
S'.New York'
p612
sg16
I400
sg17
g13
sg18
g13
sg19
S'/System/Library/Fonts/NewYork.ttf'
p613
sg21
g22
sbag7
(g8
g9
NtRp614
(dp615
g12
g13
sg14
S'Verdana'
p616
sg16
I700
sg17
g13
sg18
g13
sg19
S'/System/Library/Fonts/Supplemental/Verdana Bold.ttf'
p617
sg21
g22
sbag7
(g8
g9
NtRp618
(dp619
g12
g13
sg14
S'Noto Sans Carian'
p620
sg16
I400
sg17
g13
sg18
g13
sg19
S'/System/Library/Fonts/Supplemental/NotoSansCarian-Regular.ttf'
p621
sg21
g22
sbag7
(g8
g9
NtRp622
(dp623
g12
g13
sg14
S'STIXNonUnicode'
p624
sg16
I400
sg17
g13
sg18
g13
sg19
S'/System/Library/Fonts/Supplemental/STIXNonUni.otf'
p625
sg21
g22
sbag7
(g8
g9
NtRp626
(dp627
g12
g13
sg14
S'.SF NS Mono'
p628
sg16
I400
sg17
g13
sg18
g13
sg19
S'/System/Library/Fonts/SFNSMonoItalic.ttf'
p629
sg21
g22
sbag7
(g8
g9
NtRp630
(dp631
g12
g13
sg14
S'STIXIntegralsUpD'
p632
sg16
I700
sg17
g13
sg18
g13
sg19
S'/System/Library/Fonts/Supplemental/STIXIntUpDBol.otf'
p633
sg21
g22
sbag7
(g8
g9
NtRp634
(dp635
g12
g13
sg14
S'Noto Sans Old Italic'
p636
sg16
I400
sg17
g13
sg18
g13
sg19
S'/System/Library/Fonts/Supplemental/NotoSansOldItalic-Regular.ttf'
p637
sg21
g22
sbag7
(g8
g9
NtRp638
(dp639
g12
g13
sg14
S'DIN Condensed'
p640
sg16
I700
sg17
g172
sg18
g13
sg19
S'/System/Library/Fonts/Supplemental/DIN Condensed Bold.ttf'
p641
sg21
g22
sbag7
(g8
g9
NtRp642
(dp643
g12
g13
sg14
S'Noto Sans Linear B'
p644
sg16
I400
sg17
g13
sg18
g13
sg19
S'/System/Library/Fonts/Supplemental/NotoSansLinearB-Regular.ttf'
p645
sg21
g22
sbag7
(g8
g9
NtRp646
(dp647
g12
g13
sg14
S'Noto Sans Elbasan'
p648
sg16
I400
sg17
g13
sg18
g13
sg19
S'/System/Library/Fonts/Supplemental/NotoSansElbasan-Regular.ttf'
p649
sg21
g22
sbag7
(g8
g9
NtRp650
(dp651
g12
g13
sg14
S'Noto Sans Gothic'
p652
sg16
I400
sg17
g13
sg18
g13
sg19
S'/System/Library/Fonts/Supplemental/NotoSansGothic-Regular.ttf'
p653
sg21
g22
sbag7
(g8
g9
NtRp654
(dp655
g12
g13
sg14
S'STIXVariants'
p656
sg16
I400
sg17
g13
sg18
g13
sg19
S'/System/Library/Fonts/Supplemental/STIXVar.otf'
p657
sg21
g22
sbag7
(g8
g9
NtRp658
(dp659
g12
g13
sg14
S'Noto Sans Tagbanwa'
p660
sg16
I400
sg17
g13
sg18
g13
sg19
S'/System/Library/Fonts/Supplemental/NotoSansTagbanwa-Regular.ttf'
p661
sg21
g22
sbag7
(g8
g9
NtRp662
(dp663
g12
g13
sg14
S'Noto Sans Duployan'
p664
sg16
I400
sg17
g13
sg18
g13
sg19
S'/System/Library/Fonts/Supplemental/NotoSansDuployan-Regular.ttf'
p665
sg21
g22
sbag7
(g8
g9
NtRp666
(dp667
g12
g13
sg14
S'Apple Braille'
p668
sg16
I400
sg17
g13
sg18
g13
sg19
S'/System/Library/Fonts/Apple Braille.ttf'
p669
sg21
g22
sbag7
(g8
g9
NtRp670
(dp671
g12
g13
sg14
S'Noto Sans Ol Chiki'
p672
sg16
I400
sg17
g13
sg18
g13
sg19
S'/System/Library/Fonts/Supplemental/NotoSansOlChiki-Regular.ttf'
p673
sg21
g22
sbag7
(g8
g9
NtRp674
(dp675
g12
g74
sg14
S'Trebuchet MS'
p676
sg16
I700
sg17
g13
sg18
g13
sg19
S'/System/Library/Fonts/Supplemental/Trebuchet MS Bold Italic.ttf'
p677
sg21
g22
sbag7
(g8
g9
NtRp678
(dp679
g12
g13
sg14
S'STIXSizeFourSym'
p680
sg16
I400
sg17
g13
sg18
g13
sg19
S'/System/Library/Fonts/Supplemental/STIXSizFourSymReg.otf'
p681
sg21
g22
sbag7
(g8
g9
NtRp682
(dp683
g12
g74
sg14
S'Verdana'
p684
sg16
I400
sg17
g13
sg18
g13
sg19
S'/System/Library/Fonts/Supplemental/Verdana Italic.ttf'
p685
sg21
g22
sbag7
(g8
g9
NtRp686
(dp687
g12
g13
sg14
S'STIXIntegralsD'
p688
sg16
I700
sg17
g13
sg18
g13
sg19
S'/System/Library/Fonts/Supplemental/STIXIntDBol.otf'
p689
sg21
g22
sbag7
(g8
g9
NtRp690
(dp691
g12
g13
sg14
S'Apple Chancery'
p692
sg16
I400
sg17
g13
sg18
g13
sg19
S'/System/Library/Fonts/Supplemental/Apple Chancery.ttf'
p693
sg21
g22
sbag7
(g8
g9
NtRp694
(dp695
g12
g13
sg14
S'Noto Sans Bassa Vah'
p696
sg16
I400
sg17
g13
sg18
g13
sg19
S'/System/Library/Fonts/Supplemental/NotoSansBassaVah-Regular.ttf'
p697
sg21
g22
sbag7
(g8
g9
NtRp698
(dp699
g12
g13
sg14
S'Noto Sans Tifinagh'
p700
sg16
I400
sg17
g13
sg18
g13
sg19
S'/System/Library/Fonts/Supplemental/NotoSansTifinagh-Regular.ttf'
p701
sg21
g22
sbag7
(g8
g9
NtRp702
(dp703
g12
g13
sg14
S'Noto Sans Sora Sompeng'
p704
sg16
I400
sg17
g13
sg18
g13
sg19
S'/System/Library/Fonts/Supplemental/NotoSansSoraSompeng-Regular.ttf'
p705
sg21
g22
sbag7
(g8
g9
NtRp706
(dp707
g12
g13
sg14
S'Noto Sans Linear A'
p708
sg16
I400
sg17
g13
sg18
g13
sg19
S'/System/Library/Fonts/Supplemental/NotoSansLinearA-Regular.ttf'
p709
sg21
g22
sbag7
(g8
g9
NtRp710
(dp711
g12
g13
sg14
S'Noto Sans Rejang'
p712
sg16
I400
sg17
g13
sg18
g13
sg19
S'/System/Library/Fonts/Supplemental/NotoSansRejang-Regular.ttf'
p713
sg21
g22
sbag7
(g8
g9
NtRp714
(dp715
g12
g13
sg14
S'Noto Sans Meroitic'
p716
sg16
I400
sg17
g13
sg18
g13
sg19
S'/System/Library/Fonts/Supplemental/NotoSansMeroitic-Regular.ttf'
p717
sg21
g22
sbag7
(g8
g9
NtRp718
(dp719
g12
g13
sg14
S'Noto Sans Mro'
p720
sg16
I400
sg17
g13
sg18
g13
sg19
S'/System/Library/Fonts/Supplemental/NotoSansMro-Regular.ttf'
p721
sg21
g22
sbag7
(g8
g9
NtRp722
(dp723
g12
g74
sg14
S'STIXNonUnicode'
p724
sg16
I700
sg17
g13
sg18
g13
sg19
S'/System/Library/Fonts/Supplemental/STIXNonUniBolIta.otf'
p725
sg21
g22
sbag7
(g8
g9
NtRp726
(dp727
g12
g13
sg14
S'Noto Sans Chakma'
p728
sg16
I400
sg17
g13
sg18
g13
sg19
S'/System/Library/Fonts/Supplemental/NotoSansChakma-Regular.ttf'
p729
sg21
g22
sbag7
(g8
g9
NtRp730
(dp731
g12
g13
sg14
S'Noto Serif Balinese'
p732
sg16
I400
sg17
g13
sg18
g13
sg19
S'/System/Library/Fonts/Supplemental/NotoSerifBalinese-Regular.ttf'
p733
sg21
g22
sbag7
(g8
g9
NtRp734
(dp735
g12
g13
sg14
S'Big Caslon'
p736
sg16
I500
sg17
g13
sg18
g13
sg19
S'/System/Library/Fonts/Supplemental/BigCaslon.ttf'
p737
sg21
g22
sbag7
(g8
g9
NtRp738
(dp739
g12
g13
sg14
S'Noto Sans Khojki'
p740
sg16
I400
sg17
g13
sg18
g13
sg19
S'/System/Library/Fonts/Supplemental/NotoSansKhojki-Regular.ttf'
p741
sg21
g22
sbag7
(g8
g9
NtRp742
(dp743
g12
g13
sg14
S'Noto Sans Sharada'
p744
sg16
I400
sg17
g13
sg18
g13
sg19
S'/System/Library/Fonts/Supplemental/NotoSansSharada-Regular.ttf'
p745
sg21
g22
sbag7
(g8
g9
NtRp746
(dp747
g12
g13
sg14
S'Noto Sans Batak'
p748
sg16
I400
sg17
g13
sg18
g13
sg19
S'/System/Library/Fonts/Supplemental/NotoSansBatak-Regular.ttf'
p749
sg21
g22
sbag7
(g8
g9
NtRp750
(dp751
g12
g13
sg14
S'Times New Roman'
p752
sg16
I700
sg17
g13
sg18
g13
sg19
S'/System/Library/Fonts/Supplemental/Times New Roman Bold.ttf'
p753
sg21
g22
sbag7
(g8
g9
NtRp754
(dp755
g12
g13
sg14
S'Noto Sans Phoenician'
p756
sg16
I400
sg17
g13
sg18
g13
sg19
S'/System/Library/Fonts/Supplemental/NotoSansPhoenician-Regular.ttf'
p757
sg21
g22
sbag7
(g8
g9
NtRp758
(dp759
g12
g13
sg14
S'Arial Narrow'
p760
sg16
I700
sg17
g172
sg18
g13
sg19
S'/System/Library/Fonts/Supplemental/Arial Narrow Bold.ttf'
p761
sg21
g22
sbag7
(g8
g9
NtRp762
(dp763
g12
g13
sg14
S'Noto Sans Hanifi Rohingya'
p764
sg16
I400
sg17
g13
sg18
g13
sg19
S'/System/Library/Fonts/Supplemental/NotoSansHanifiRohingya-Regular.ttf'
p765
sg21
g22
sbag7
(g8
g9
NtRp766
(dp767
g12
g13
sg14
S'Arial'
p768
sg16
I400
sg17
g13
sg18
g13
sg19
S'/System/Library/Fonts/Supplemental/Arial.ttf'
p769
sg21
g22
sbag7
(g8
g9
NtRp770
(dp771
g12
g13
sg14
S'Noto Sans Hatran'
p772
sg16
I400
sg17
g13
sg18
g13
sg19
S'/System/Library/Fonts/Supplemental/NotoSansHatran-Regular.ttf'
p773
sg21
g22
sbag7
(g8
g9
NtRp774
(dp775
g12
g13
sg14
S'.New York'
p776
sg16
I400
sg17
g13
sg18
g13
sg19
S'/System/Library/Fonts/NewYorkItalic.ttf'
p777
sg21
g22
sbag7
(g8
g9
NtRp778
(dp779
g12
g13
sg14
S'Apple Braille'
p780
sg16
I400
sg17
g13
sg18
g13
sg19
S'/System/Library/Fonts/Apple Braille Pinpoint 6 Dot.ttf'
p781
sg21
g22
sbag7
(g8
g9
NtRp782
(dp783
g12
g13
sg14
S'Noto Sans Imperial Aramaic'
p784
sg16
I400
sg17
g13
sg18
g13
sg19
S'/System/Library/Fonts/Supplemental/NotoSansImperialAramaic-Regular.ttf'
p785
sg21
g22
sbag7
(g8
g9
NtRp786
(dp787
g12
g13
sg14
S'Noto Sans Inscriptional Pahlavi'
p788
sg16
I400
sg17
g13
sg18
g13
sg19
S'/System/Library/Fonts/Supplemental/NotoSansInscriptionalPahlavi-Regular.ttf'
p789
sg21
g22
sbag7
(g8
g9
NtRp790
(dp791
g12
g13
sg14
S'Symbol'
p792
sg16
I400
sg17
g13
sg18
g13
sg19
S'/System/Library/Fonts/Symbol.ttf'
p793
sg21
g22
sbag7
(g8
g9
NtRp794
(dp795
g12
g13
sg14
S'Noto Sans Newa'
p796
sg16
I400
sg17
g13
sg18
g13
sg19
S'/System/Library/Fonts/Supplemental/NotoSansNewa-Regular.ttf'
p797
sg21
g22
sbag7
(g8
g9
NtRp798
(dp799
g12
g13
sg14
S'Noto Sans Modi'
p800
sg16
I400
sg17
g13
sg18
g13
sg19
S'/System/Library/Fonts/Supplemental/NotoSansModi-Regular.ttf'
p801
sg21
g22
sbag7
(g8
g9
NtRp802
(dp803
g12
g74
sg14
S'Times New Roman'
p804
sg16
I500
sg17
g13
sg18
g13
sg19
S'/System/Library/Fonts/Supplemental/Times New Roman Italic.ttf'
p805
sg21
g22
sbag7
(g8
g9
NtRp806
(dp807
g12
g13
sg14
S'STIXIntegralsD'
p808
sg16
I400
sg17
g13
sg18
g13
sg19
S'/System/Library/Fonts/Supplemental/STIXIntDReg.otf'
p809
sg21
g22
sbag7
(g8
g9
NtRp810
(dp811
g12
g13
sg14
S'.Keyboard'
p812
sg16
I400
sg17
g13
sg18
g13
sg19
S'/System/Library/Fonts/Keyboard.ttf'
p813
sg21
g22
sbag7
(g8
g9
NtRp814
(dp815
g12
g13
sg14
S'Noto Sans Yi'
p816
sg16
I400
sg17
g13
sg18
g13
sg19
S'/System/Library/Fonts/Supplemental/NotoSansYi-Regular.ttf'
p817
sg21
g22
sbag7
(g8
g9
NtRp818
(dp819
g12
g13
sg14
S'Bodoni 72 Smallcaps'
p820
sg16
I400
sg17
g13
sg18
g13
sg19
S'/System/Library/Fonts/Supplemental/Bodoni 72 Smallcaps Book.ttf'
p821
sg21
g22
sbag7
(g8
g9
NtRp822
(dp823
g12
g13
sg14
S'Noto Sans Lepcha'
p824
sg16
I400
sg17
g13
sg18
g13
sg19
S'/System/Library/Fonts/Supplemental/NotoSansLepcha-Regular.ttf'
p825
sg21
g22
sbag7
(g8
g9
NtRp826
(dp827
g12
g13
sg14
S'Noto Sans Nabataean'
p828
sg16
I400
sg17
g13
sg18
g13
sg19
S'/System/Library/Fonts/Supplemental/NotoSansNabataean-Regular.ttf'
p829
sg21
g22
sbag7
(g8
g9
NtRp830
(dp831
g12
g13
sg14
S'Noto Sans Adlam'
p832
sg16
I400
sg17
g13
sg18
g13
sg19
S'/System/Library/Fonts/Supplemental/NotoSansAdlam-Regular.ttf'
p833
sg21
g22
sbag7
(g8
g9
NtRp834
(dp835
g12
g13
sg14
S'Tahoma'
p836
sg16
I400
sg17
g13
sg18
g13
sg19
S'/System/Library/Fonts/Supplemental/Tahoma.ttf'
p837
sg21
g22
sbag7
(g8
g9
NtRp838
(dp839
g12
g13
sg14
S'Noto Sans Mongolian'
p840
sg16
I400
sg17
g13
sg18
g13
sg19
S'/System/Library/Fonts/Supplemental/NotoSansMongolian-Regular.ttf'
p841
sg21
g22
sbag7
(g8
g9
NtRp842
(dp843
g12
g13
sg14
S'Noto Sans Buginese'
p844
sg16
I400
sg17
g13
sg18
g13
sg19
S'/System/Library/Fonts/Supplemental/NotoSansBuginese-Regular.ttf'
p845
sg21
g22
sbag7
(g8
g9
NtRp846
(dp847
g12
g13
sg14
S'Noto Sans Egyptian Hieroglyphs'
p848
sg16
I400
sg17
g13
sg18
g13
sg19
S'/System/Library/Fonts/Supplemental/NotoSansEgyptianHieroglyphs-Regular.ttf'
p849
sg21
g22
sbag7
(g8
g9
NtRp850
(dp851
g12
g13
sg14
S'Noto Sans Old North Arabian'
p852
sg16
I400
sg17
g13
sg18
g13
sg19
S'/System/Library/Fonts/Supplemental/NotoSansOldNorthArabian-Regular.ttf'
p853
sg21
g22
sbag7
(g8
g9
NtRp854
(dp855
g12
g13
sg14
S'Noto Sans Pau Cin Hau'
p856
sg16
I400
sg17
g13
sg18
g13
sg19
S'/System/Library/Fonts/Supplemental/NotoSansPauCinHau-Regular.ttf'
p857
sg21
g22
sbag7
(g8
g9
NtRp858
(dp859
g12
g13
sg14
S'Wingdings 3'
p860
sg16
I400
sg17
g13
sg18
g13
sg19
S'/System/Library/Fonts/Supplemental/Wingdings 3.ttf'
p861
sg21
g22
sbag7
(g8
g9
NtRp862
(dp863
g12
g13
sg14
S'.SF Compact Rounded'
p864
sg16
I400
sg17
g13
sg18
g13
sg19
S'/System/Library/Fonts/SFCompactRounded.ttf'
p865
sg21
g22
sbag7
(g8
g9
NtRp866
(dp867
g12
g13
sg14
S'Noto Sans Syloti Nagri'
p868
sg16
I400
sg17
g13
sg18
g13
sg19
S'/System/Library/Fonts/Supplemental/NotoSansSylotiNagri-Regular.ttf'
p869
sg21
g22
sbag7
(g8
g9
NtRp870
(dp871
g12
g13
sg14
S'Arial Rounded MT Bold'
p872
sg16
I700
sg17
g13
sg18
g13
sg19
S'/System/Library/Fonts/Supplemental/Arial Rounded Bold.ttf'
p873
sg21
g22
sbag7
(g8
g9
NtRp874
(dp875
g12
g13
sg14
S'Noto Sans Psalter Pahlavi'
p876
sg16
I400
sg17
g13
sg18
g13
sg19
S'/System/Library/Fonts/Supplemental/NotoSansPsalterPahlavi-Regular.ttf'
p877
sg21
g22
sbag7
(g8
g9
NtRp878
(dp879
g12
g13
sg14
S'Diwan Thuluth'
p880
sg16
I400
sg17
g13
sg18
g13
sg19
S'/System/Library/Fonts/Supplemental/Diwan Thuluth.ttf'
p881
sg21
g22
sbag7
(g8
g9
NtRp882
(dp883
g12
g13
sg14
S'Noto Sans Manichaean'
p884
sg16
I400
sg17
g13
sg18
g13
sg19
S'/System/Library/Fonts/Supplemental/NotoSansManichaean-Regular.ttf'
p885
sg21
g22
sbag7
(g8
g9
NtRp886
(dp887
g12
g13
sg14
S'Noto Sans Mahajani'
p888
sg16
I400
sg17
g13
sg18
g13
sg19
S'/System/Library/Fonts/Supplemental/NotoSansMahajani-Regular.ttf'
p889
sg21
g22
sbag7
(g8
g9
NtRp890
(dp891
g12
g13
sg14
S'STIXIntegralsSm'
p892
sg16
I400
sg17
g13
sg18
g13
sg19
S'/System/Library/Fonts/Supplemental/STIXIntSmReg.otf'
p893
sg21
g22
sbag7
(g8
g9
NtRp894
(dp895
g12
g13
sg14
S'Times New Roman'
p896
sg16
I500
sg17
g13
sg18
g13
sg19
S'/System/Library/Fonts/Supplemental/Times New Roman.ttf'
p897
sg21
g22
sbag7
(g8
g9
NtRp898
(dp899
g12
g13
sg14
S'Kokonor'
p900
sg16
I400
sg17
g13
sg18
g13
sg19
S'/System/Library/Fonts/Supplemental/Kokonor.ttf'
p901
sg21
g22
sbag7
(g8
g9
NtRp902
(dp903
g12
g13
sg14
S'Andale Mono'
p904
sg16
I400
sg17
g13
sg18
g13
sg19
S'/System/Library/Fonts/Supplemental/Andale Mono.ttf'
p905
sg21
g22
sbag7
(g8
g9
NtRp906
(dp907
g12
g13
sg14
S'Noto Sans Old Turkic'
p908
sg16
I400
sg17
g13
sg18
g13
sg19
S'/System/Library/Fonts/Supplemental/NotoSansOldTurkic-Regular.ttf'
p909
sg21
g22
sbag7
(g8
g9
NtRp910
(dp911
g12
g74
sg14
S'Brush Script MT'
p912
sg16
I400
sg17
g13
sg18
g13
sg19
S'/System/Library/Fonts/Supplemental/Brush Script.ttf'
p913
sg21
g22
sbag7
(g8
g9
NtRp914
(dp915
g12
g13
sg14
S'Noto Sans Old Hungarian'
p916
sg16
I400
sg17
g13
sg18
g13
sg19
S'/System/Library/Fonts/Supplemental/NotoSansOldHungarian-Regular.ttf'
p917
sg21
g22
sbag7
(g8
g9
NtRp918
(dp919
g12
g13
sg14
S'STIXSizeFiveSym'
p920
sg16
I400
sg17
g13
sg18
g13
sg19
S'/System/Library/Fonts/Supplemental/STIXSizFiveSymReg.otf'
p921
sg21
g22
sbag7
(g8
g9
NtRp922
(dp923
g12
g13
sg14
S'STIXSizeThreeSym'
p924
sg16
I400
sg17
g13
sg18
g13
sg19
S'/System/Library/Fonts/Supplemental/STIXSizThreeSymReg.otf'
p925
sg21
g22
sbag7
(g8
g9
NtRp926
(dp927
g12
g13
sg14
S'Noto Sans Kayah Li'
p928
sg16
I400
sg17
g13
sg18
g13
sg19
S'/System/Library/Fonts/Supplemental/NotoSansKayahLi-Regular.ttf'
p929
sg21
g22
sbag7
(g8
g9
NtRp930
(dp931
g12
g13
sg14
S'Noto Sans Warang Citi'
p932
sg16
I400
sg17
g13
sg18
g13
sg19
S'/System/Library/Fonts/Supplemental/NotoSansWarangCiti-Regular.ttf'
p933
sg21
g22
sbag7
(g8
g9
NtRp934
(dp935
g12
g13
sg14
S'STIXVariants'
p936
sg16
I700
sg17
g13
sg18
g13
sg19
S'/System/Library/Fonts/Supplemental/STIXVarBol.otf'
p937
sg21
g22
sbag7
(g8
g9
NtRp938
(dp939
g12
g74
sg14
S'Times New Roman'
p940
sg16
I700
sg17
g13
sg18
g13
sg19
S'/System/Library/Fonts/Supplemental/Times New Roman Bold Italic.ttf'
p941
sg21
g22
sbag7
(g8
g9
NtRp942
(dp943
g12
g13
sg14
S'Webdings'
p944
sg16
I400
sg17
g13
sg18
g13
sg19
S'/System/Library/Fonts/Supplemental/Webdings.ttf'
p945
sg21
g22
sbag7
(g8
g9
NtRp946
(dp947
g12
g13
sg14
S'Noto Sans Mandaic'
p948
sg16
I400
sg17
g13
sg18
g13
sg19
S'/System/Library/Fonts/Supplemental/NotoSansMandaic-Regular.ttf'
p949
sg21
g22
sbag7
(g8
g9
NtRp950
(dp951
g12
g13
sg14
S'Noto Sans Shavian'
p952
sg16
I400
sg17
g13
sg18
g13
sg19
S'/System/Library/Fonts/Supplemental/NotoSansShavian-Regular.ttf'
p953
sg21
g22
sbag7
(g8
g9
NtRp954
(dp955
g12
g13
sg14
S'Bradley Hand'
p956
sg16
I700
sg17
g13
sg18
g13
sg19
S'/System/Library/Fonts/Supplemental/Bradley Hand Bold.ttf'
p957
sg21
g22
sbag7
(g8
g9
NtRp958
(dp959
g12
g13
sg14
S'Noto Sans Tai Viet'
p960
sg16
I400
sg17
g13
sg18
g13
sg19
S'/System/Library/Fonts/Supplemental/NotoSansTaiViet-Regular.ttf'
p961
sg21
g22
sbag7
(g8
g9
NtRp962
(dp963
g12
g13
sg14
S'Noto Sans Bamum'
p964
sg16
I400
sg17
g13
sg18
g13
sg19
S'/System/Library/Fonts/Supplemental/NotoSansBamum-Regular.ttf'
p965
sg21
g22
sbag7
(g8
g9
NtRp966
(dp967
g12
g13
sg14
S'Noto Sans Tirhuta'
p968
sg16
I400
sg17
g13
sg18
g13
sg19
S'/System/Library/Fonts/Supplemental/NotoSansTirhuta-Regular.ttf'
p969
sg21
g22
sbag7
(g8
g9
NtRp970
(dp971
g12
g74
sg14
S'.SF Compact'
p972
sg16
I400
sg17
g13
sg18
g13
sg19
S'/System/Library/Fonts/SFCompactItalic.ttf'
p973
sg21
g22
sbag7
(g8
g9
NtRp974
(dp975
g12
g13
sg14
S'Noto Sans Vai'
p976
sg16
I400
sg17
g13
sg18
g13
sg19
S'/System/Library/Fonts/Supplemental/NotoSansVai-Regular.ttf'
p977
sg21
g22
sbag7
(g8
g9
NtRp978
(dp979
g12
g13
sg14
S'Mishafi Gold'
p980
sg16
I400
sg17
g13
sg18
g13
sg19
S'/System/Library/Fonts/Supplemental/Mishafi Gold.ttf'
p981
sg21
g22
sbag7
(g8
g9
NtRp982
(dp983
g12
g13
sg14
S'Arial'
p984
sg16
I700
sg17
g13
sg18
g13
sg19
S'/System/Library/Fonts/Supplemental/Arial Bold.ttf'
p985
sg21
g22
sbag7
(g8
g9
NtRp986
(dp987
g12
g13
sg14
S'.SF NS Mono'
p988
sg16
I400
sg17
g13
sg18
g13
sg19
S'/System/Library/Fonts/SFNSMono.ttf'
p989
sg21
g22
sbag7
(g8
g9
NtRp990
(dp991
g12
g13
sg14
S'Courier New'
p992
sg16
I400
sg17
g13
sg18
g13
sg19
S'/System/Library/Fonts/Supplemental/Courier New.ttf'
p993
sg21
g22
sbag7
(g8
g9
NtRp994
(dp995
g12
g13
sg14
S'Noto Sans Limbu'
p996
sg16
I400
sg17
g13
sg18
g13
sg19
S'/System/Library/Fonts/Supplemental/NotoSansLimbu-Regular.ttf'
p997
sg21
g22
sbag7
(g8
g9
NtRp998
(dp999
g12
g13
sg14
S'Wingdings'
p1000
sg16
I400
sg17
g13
sg18
g13
sg19
S'/System/Library/Fonts/Supplemental/Wingdings.ttf'
p1001
sg21
g22
sbag7
(g8
g9
NtRp1002
(dp1003
g12
g13
sg14
S'Noto Sans Runic'
p1004
sg16
I400
sg17
g13
sg18
g13
sg19
S'/System/Library/Fonts/Supplemental/NotoSansRunic-Regular.ttf'
p1005
sg21
g22
sbag7
(g8
g9
NtRp1006
(dp1007
g12
g74
sg14
S'Verdana'
p1008
sg16
I700
sg17
g13
sg18
g13
sg19
S'/System/Library/Fonts/Supplemental/Verdana Bold Italic.ttf'
p1009
sg21
g22
sbag7
(g8
g9
NtRp1010
(dp1011
g12
g74
sg14
S'Trebuchet MS'
p1012
sg16
I400
sg17
g13
sg18
g13
sg19
S'/System/Library/Fonts/Supplemental/Trebuchet MS Italic.ttf'
p1013
sg21
g22
sbag7
(g8
g9
NtRp1014
(dp1015
g12
g13
sg14
S'STIXGeneral'
p1016
sg16
I700
sg17
g13
sg18
g13
sg19
S'/System/Library/Fonts/Supplemental/STIXGeneralBol.otf'
p1017
sg21
g22
sbag7
(g8
g9
NtRp1018
(dp1019
g12
g13
sg14
S'Comic Sans MS'
p1020
sg16
I700
sg17
g13
sg18
g13
sg19
S'/System/Library/Fonts/Supplemental/Comic Sans MS Bold.ttf'
p1021
sg21
g22
sbag7
(g8
g9
NtRp1022
(dp1023
g12
g13
sg14
S'Farisi'
p1024
sg16
I400
sg17
g13
sg18
g13
sg19
S'/System/Library/Fonts/Supplemental/Farisi.ttf'
p1025
sg21
g22
sbag7
(g8
g9
NtRp1026
(dp1027
g12
g13
sg14
S'Noto Sans Samaritan'
p1028
sg16
I400
sg17
g13
sg18
g13
sg19
S'/System/Library/Fonts/Supplemental/NotoSansSamaritan-Regular.ttf'
p1029
sg21
g22
sbag7
(g8
g9
NtRp1030
(dp1031
g12
g13
sg14
S'Noto Sans Tai Tham'
p1032
sg16
I400
sg17
g13
sg18
g13
sg19
S'/System/Library/Fonts/Supplemental/NotoSansTaiTham-Regular.ttf'
p1033
sg21
g22
sbag7
(g8
g9
NtRp1034
(dp1035
g12
g13
sg14
S'Sathu'
p1036
sg16
I400
sg17
g13
sg18
g13
sg19
S'/System/Library/Fonts/Supplemental/Sathu.ttf'
p1037
sg21
g22
sbag7
(g8
g9
NtRp1038
(dp1039
g12
g13
sg14
S'STIXSizeOneSym'
p1040
sg16
I400
sg17
g13
sg18
g13
sg19
S'/System/Library/Fonts/Supplemental/STIXSizOneSymReg.otf'
p1041
sg21
g22
sbag7
(g8
g9
NtRp1042
(dp1043
g12
g13
sg14
S'Noto Sans New Tai Lue'
p1044
sg16
I400
sg17
g13
sg18
g13
sg19
S'/System/Library/Fonts/Supplemental/NotoSansNewTaiLue-Regular.ttf'
p1045
sg21
g22
sbag7
(g8
g9
NtRp1046
(dp1047
g12
g13
sg14
S'Noto Sans Lycian'
p1048
sg16
I400
sg17
g13
sg18
g13
sg19
S'/System/Library/Fonts/Supplemental/NotoSansLycian-Regular.ttf'
p1049
sg21
g22
sbasS'defaultFamily'
p1050
(dp1051
S'afm'
p1052
S'Helvetica'
p1053
sS'ttf'
p1054
S'Bitstream Vera Sans'
p1055
ssS'ttffiles'
p1056
(lp1057
S'/System/Library/Frameworks/Python.framework/Versions/2.7/Extras/lib/python/matplotlib/mpl-data/fonts/ttf/cmex10.ttf'
p1058
aS'/System/Library/Frameworks/Python.framework/Versions/2.7/Extras/lib/python/matplotlib/mpl-data/fonts/ttf/VeraBI.ttf'
p1059
aS'/System/Library/Frameworks/Python.framework/Versions/2.7/Extras/lib/python/matplotlib/mpl-data/fonts/ttf/STIXNonUni.ttf'
p1060
aS'/System/Library/Frameworks/Python.framework/Versions/2.7/Extras/lib/python/matplotlib/mpl-data/fonts/ttf/STIXNonUniBol.ttf'
p1061
aS'/System/Library/Frameworks/Python.framework/Versions/2.7/Extras/lib/python/matplotlib/mpl-data/fonts/ttf/VeraMoBd.ttf'
p1062
aS'/System/Library/Frameworks/Python.framework/Versions/2.7/Extras/lib/python/matplotlib/mpl-data/fonts/ttf/cmr10.ttf'
p1063
aS'/System/Library/Frameworks/Python.framework/Versions/2.7/Extras/lib/python/matplotlib/mpl-data/fonts/ttf/STIXGeneral.ttf'
p1064
aS'/System/Library/Frameworks/Python.framework/Versions/2.7/Extras/lib/python/matplotlib/mpl-data/fonts/ttf/VeraMoIt.ttf'
p1065
aS'/System/Library/Frameworks/Python.framework/Versions/2.7/Extras/lib/python/matplotlib/mpl-data/fonts/ttf/VeraSe.ttf'
p1066
aS'/System/Library/Frameworks/Python.framework/Versions/2.7/Extras/lib/python/matplotlib/mpl-data/fonts/ttf/STIXSizFiveSymReg.ttf'
p1067
aS'/System/Library/Frameworks/Python.framework/Versions/2.7/Extras/lib/python/matplotlib/mpl-data/fonts/ttf/VeraMono.ttf'
p1068
aS'/System/Library/Frameworks/Python.framework/Versions/2.7/Extras/lib/python/matplotlib/mpl-data/fonts/ttf/VeraMoBI.ttf'
p1069
aS'/System/Library/Frameworks/Python.framework/Versions/2.7/Extras/lib/python/matplotlib/mpl-data/fonts/ttf/STIXGeneralBol.ttf'
p1070
aS'/System/Library/Frameworks/Python.framework/Versions/2.7/Extras/lib/python/matplotlib/mpl-data/fonts/ttf/STIXGeneralItalic.ttf'
p1071
aS'/System/Library/Frameworks/Python.framework/Versions/2.7/Extras/lib/python/matplotlib/mpl-data/fonts/ttf/STIXSizFourSymReg.ttf'
p1072
aS'/System/Library/Frameworks/Python.framework/Versions/2.7/Extras/lib/python/matplotlib/mpl-data/fonts/ttf/STIXSizThreeSymBol.ttf'
p1073
aS'/System/Library/Frameworks/Python.framework/Versions/2.7/Extras/lib/python/matplotlib/mpl-data/fonts/ttf/STIXSizOneSymBol.ttf'
p1074
aS'/System/Library/Frameworks/Python.framework/Versions/2.7/Extras/lib/python/matplotlib/mpl-data/fonts/ttf/STIXSizFourSymBol.ttf'
p1075
aS'/System/Library/Frameworks/Python.framework/Versions/2.7/Extras/lib/python/matplotlib/mpl-data/fonts/ttf/VeraBd.ttf'
p1076
aS'/System/Library/Frameworks/Python.framework/Versions/2.7/Extras/lib/python/matplotlib/mpl-data/fonts/ttf/cmsy10.ttf'
p1077
aS'/System/Library/Frameworks/Python.framework/Versions/2.7/Extras/lib/python/matplotlib/mpl-data/fonts/ttf/STIXSizTwoSymReg.ttf'
p1078
aS'/System/Library/Frameworks/Python.framework/Versions/2.7/Extras/lib/python/matplotlib/mpl-data/fonts/ttf/STIXNonUniBolIta.ttf'
p1079
aS'/System/Library/Frameworks/Python.framework/Versions/2.7/Extras/lib/python/matplotlib/mpl-data/fonts/ttf/cmb10.ttf'
p1080
aS'/System/Library/Frameworks/Python.framework/Versions/2.7/Extras/lib/python/matplotlib/mpl-data/fonts/ttf/cmmi10.ttf'
p1081
aS'/System/Library/Frameworks/Python.framework/Versions/2.7/Extras/lib/python/matplotlib/mpl-data/fonts/ttf/VeraIt.ttf'
p1082
aS'/System/Library/Frameworks/Python.framework/Versions/2.7/Extras/lib/python/matplotlib/mpl-data/fonts/ttf/STIXSizOneSymReg.ttf'
p1083
aS'/System/Library/Frameworks/Python.framework/Versions/2.7/Extras/lib/python/matplotlib/mpl-data/fonts/ttf/Vera.ttf'
p1084
aS'/System/Library/Frameworks/Python.framework/Versions/2.7/Extras/lib/python/matplotlib/mpl-data/fonts/ttf/cmss10.ttf'
p1085
aS'/System/Library/Frameworks/Python.framework/Versions/2.7/Extras/lib/python/matplotlib/mpl-data/fonts/ttf/VeraSeBd.ttf'
p1086
aS'/System/Library/Frameworks/Python.framework/Versions/2.7/Extras/lib/python/matplotlib/mpl-data/fonts/ttf/STIXSizTwoSymBol.ttf'
p1087
aS'/System/Library/Frameworks/Python.framework/Versions/2.7/Extras/lib/python/matplotlib/mpl-data/fonts/ttf/STIXNonUniIta.ttf'
p1088
aS'/System/Library/Frameworks/Python.framework/Versions/2.7/Extras/lib/python/matplotlib/mpl-data/fonts/ttf/cmtt10.ttf'
p1089
aS'/System/Library/Frameworks/Python.framework/Versions/2.7/Extras/lib/python/matplotlib/mpl-data/fonts/ttf/STIXGeneralBolIta.ttf'
p1090
aS'/System/Library/Frameworks/Python.framework/Versions/2.7/Extras/lib/python/matplotlib/mpl-data/fonts/ttf/STIXSizThreeSymReg.ttf'
p1091
aS'/System/Library/Fonts/Supplemental/NotoSansCaucasianAlbanian-Regular.ttf'
p1092
aS'/System/Library/Fonts/Supplemental/PartyLET-plain.ttf'
p1093
aS'/System/Library/Fonts/Supplemental/Trattatello.ttf'
p1094
aS'/System/Library/Fonts/Supplemental/Arial Narrow.ttf'
p1095
aS'/System/Library/Fonts/Supplemental/STIXSizTwoSymBol.otf'
p1096
aS'/System/Library/Fonts/Supplemental/NotoSansCypriot-Regular.ttf'
p1097
aS'/System/Library/Fonts/SFNSItalic.ttf'
p1098
aS'/System/Library/Fonts/Supplemental/Mishafi.ttf'
p1099
aS'/Library/Fonts/Arial Unicode.ttf'
p1100
aS'/System/Library/Fonts/Supplemental/NotoSansThaana-Regular.ttf'
p1101
aS'/System/Library/Fonts/Supplemental/STIXGeneralBolIta.otf'
p1102
aS'/System/Library/Fonts/Supplemental/Comic Sans MS.ttf'
p1103
aS'/System/Library/Fonts/Supplemental/NotoSansPalmyrene-Regular.ttf'
p1104
aS'/System/Library/Fonts/Supplemental/Courier New Italic.ttf'
p1105
aS'/System/Library/Fonts/Supplemental/Krungthep.ttf'
p1106
aS'/System/Library/Fonts/Supplemental/STIXSizThreeSymBol.otf'
p1107
aS'/System/Library/Fonts/Supplemental/NotoSansSiddham-Regular.ttf'
p1108
aS'/System/Library/Fonts/Supplemental/Gurmukhi.ttf'
p1109
aS'/System/Library/Fonts/Supplemental/NotoSansInscriptionalParthian-Regular.ttf'
p1110
aS'/System/Library/Fonts/Supplemental/STIXIntSmBol.otf'
p1111
aS'/System/Library/Fonts/Supplemental/STIXNonUniBol.otf'
p1112
aS'/System/Library/Fonts/Supplemental/STIXIntUpBol.otf'
p1113
aS'/System/Library/Fonts/Supplemental/Microsoft Sans Serif.ttf'
p1114
aS'/System/Library/Fonts/Supplemental/Chalkduster.ttf'
p1115
aS'/System/Library/Fonts/Supplemental/Trebuchet MS Bold.ttf'
p1116
aS'/System/Library/Fonts/ZapfDingbats.ttf'
p1117
aS'/System/Library/Fonts/Supplemental/STIXGeneralItalic.otf'
p1118
aS'/System/Library/Fonts/Supplemental/Courier New Bold Italic.ttf'
p1119
aS'/System/Library/Fonts/Supplemental/Verdana.ttf'
p1120
aS'/System/Library/Fonts/Supplemental/NotoSerifAhom-Regular.ttf'
p1121
aS'/System/Library/Fonts/Supplemental/Trebuchet MS.ttf'
p1122
aS'/System/Library/Fonts/Supplemental/NotoSansCham-Regular.ttf'
p1123
aS'/System/Library/Fonts/Supplemental/Arial Narrow Italic.ttf'
p1124
aS'/System/Library/Fonts/Supplemental/Georgia Italic.ttf'
p1125
aS'/System/Library/Fonts/Supplemental/Tahoma Bold.ttf'
p1126
aS'/System/Library/Fonts/Supplemental/NotoSansLisu-Regular.ttf'
p1127
aS'/System/Library/Fonts/Supplemental/Lao Sangam MN.ttf'
p1128
aS'/System/Library/Fonts/Supplemental/STIXIntUpReg.otf'
p1129
aS'/System/Library/Fonts/Supplemental/STIXIntUpSmReg.otf'
p1130
aS'/System/Library/Fonts/Supplemental/AppleMyungjo.ttf'
p1131
aS'/System/Library/Fonts/Supplemental/NotoSansBhaiksuki-Regular.ttf'
p1132
aS'/System/Library/Fonts/Supplemental/Georgia.ttf'
p1133
aS'/System/Library/Fonts/Supplemental/NotoSansJavanese-Regular.otf'
p1134
aS'/System/Library/Fonts/Supplemental/Herculanum.ttf'
p1135
aS'/System/Library/Fonts/SFNS.ttf'
p1136
aS'/System/Library/Fonts/Supplemental/STIXSizOneSymBol.otf'
p1137
aS'/System/Library/Fonts/Supplemental/NotoSansMiao-Regular.ttf'
p1138
aS'/System/Library/Fonts/Supplemental/NotoSansTagalog-Regular.ttf'
p1139
aS'/System/Library/Fonts/Supplemental/NotoSansMarchen-Regular.ttf'
p1140
aS'/System/Library/Fonts/Supplemental/NotoSansOldPermic-Regular.ttf'
p1141
aS'/System/Library/Fonts/Supplemental/NotoSansSyriac-Regular.ttf'
p1142
aS'/System/Library/Fonts/Supplemental/STIXNonUniIta.otf'
p1143
aS'/System/Library/Fonts/Apple Symbols.ttf'
p1144
aS'/System/Library/Fonts/Supplemental/NotoSansKharoshthi-Regular.ttf'
p1145
aS'/System/Library/Fonts/Supplemental/Zapfino.ttf'
p1146
aS'/System/Library/Fonts/Supplemental/NotoSansKhudawadi-Regular.ttf'
p1147
aS'/System/Library/Fonts/SFCompact.ttf'
p1148
aS'/System/Library/Fonts/Supplemental/STIXSizTwoSymReg.otf'
p1149
aS'/System/Library/Fonts/Supplemental/Academy Engraved LET Fonts.ttf'
p1150
aS'/System/Library/Fonts/Supplemental/NotoSansBrahmi-Regular.ttf'
p1151
aS'/System/Library/Fonts/Supplemental/NotoSansSaurashtra-Regular.ttf'
p1152
aS'/System/Library/Fonts/Supplemental/Arial Narrow Bold Italic.ttf'
p1153
aS'/System/Library/Fonts/Supplemental/NotoSansPahawhHmong-Regular.ttf'
p1154
aS'/System/Library/Fonts/Supplemental/PlantagenetCherokee.ttf'
p1155
aS'/System/Library/Fonts/Supplemental/NotoSansUgaritic-Regular.ttf'
p1156
aS'/System/Library/Fonts/Apple Braille Outline 8 Dot.ttf'
p1157
aS'/System/Library/Fonts/Supplemental/Courier New Bold.ttf'
p1158
aS'/System/Library/Fonts/Supplemental/Georgia Bold.ttf'
p1159
aS'/System/Library/Fonts/Supplemental/NotoSansMendeKikakui-Regular.ttf'
p1160
aS'/System/Library/Fonts/Supplemental/Arial Black.ttf'
p1161
aS'/System/Library/Fonts/Supplemental/NotoSansKaithi-Regular.ttf'
p1162
aS'/System/Library/Fonts/Supplemental/AppleGothic.ttf'
p1163
aS'/System/Library/Fonts/Supplemental/NotoSansAvestan-Regular.ttf'
p1164
aS'/System/Library/Fonts/Supplemental/NotoSansBuhid-Regular.ttf'
p1165
aS'/System/Library/Fonts/Supplemental/NotoSansHanunoo-Regular.ttf'
p1166
aS'/System/Library/Fonts/Supplemental/NotoSansGlagolitic-Regular.ttf'
p1167
aS'/System/Library/Fonts/Supplemental/Georgia Bold Italic.ttf'
p1168
aS'/System/Library/Fonts/Supplemental/STIXIntUpDReg.otf'
p1169
aS'/System/Library/Fonts/Supplemental/Luminari.ttf'
p1170
aS'/System/Library/Fonts/Supplemental/Hoefler Text Ornaments.ttf'
p1171
aS'/System/Library/Fonts/Supplemental/NotoSansNKo-Regular.ttf'
p1172
aS'/System/Library/Fonts/Supplemental/NotoSansOsage-Regular.ttf'
p1173
aS'/System/Library/Fonts/Supplemental/NotoSansMeeteiMayek-Regular.ttf'
p1174
aS'/System/Library/Fonts/Supplemental/Impact.ttf'
p1175
aS'/System/Library/Fonts/Supplemental/NotoSansCuneiform-Regular.ttf'
p1176
aS'/System/Library/Fonts/Supplemental/NotoSansTaiLe-Regular.ttf'
p1177
aS'/System/Library/Fonts/LastResort.otf'
p1178
aS'/System/Library/Fonts/Supplemental/NotoSansLydian-Regular.ttf'
p1179
aS'/System/Library/Fonts/Supplemental/NotoSansTakri-Regular.ttf'
p1180
aS'/System/Library/Fonts/Supplemental/Silom.ttf'
p1181
aS'/System/Library/Fonts/Supplemental/NotoSansOldPersian-Regular.ttf'
p1182
aS'/System/Library/Fonts/Supplemental/Khmer Sangam MN.ttf'
p1183
aS'/System/Library/Fonts/Supplemental/NotoSansOsmanya-Regular.ttf'
p1184
aS'/System/Library/Fonts/Supplemental/NotoSansPhagsPa-Regular.ttf'
p1185
aS'/System/Library/Fonts/Supplemental/Skia.ttf'
p1186
aS'/System/Library/Fonts/Supplemental/NotoSansMultani-Regular.ttf'
p1187
aS'/System/Library/Fonts/Supplemental/Arial Italic.ttf'
p1188
aS'/System/Library/Fonts/Supplemental/NotoSansSundanese-Regular.ttf'
p1189
aS'/System/Library/Fonts/Supplemental/Wingdings 2.ttf'
p1190
aS'/System/Library/Fonts/Supplemental/STIXGeneral.otf'
p1191
aS'/System/Library/Fonts/SFNSRounded.ttf'
p1192
aS'/System/Library/Fonts/Supplemental/DIN Alternate Bold.ttf'
p1193
aS'/System/Library/Fonts/Supplemental/NotoSansWancho-Regular.ttf'
p1194
aS'/System/Library/Fonts/Supplemental/STIXSizFourSymBol.otf'
p1195
aS'/System/Library/Fonts/Supplemental/NotoSansOldSouthArabian-Regular.ttf'
p1196
aS'/System/Library/Fonts/Supplemental/NotoSansCoptic-Regular.ttf'
p1197
aS'/System/Library/Fonts/Supplemental/STIXIntUpSmBol.otf'
p1198
aS'/System/Library/Fonts/Apple Braille Pinpoint 8 Dot.ttf'
p1199
aS'/System/Library/Fonts/Supplemental/Bodoni Ornaments.ttf'
p1200
aS'/System/Library/Fonts/Apple Braille Outline 6 Dot.ttf'
p1201
aS'/System/Library/Fonts/Supplemental/NotoSansOgham-Regular.ttf'
p1202
aS'/System/Library/Fonts/Supplemental/Ayuthaya.ttf'
p1203
aS'/System/Library/Fonts/Supplemental/Arial Bold Italic.ttf'
p1204
aS'/System/Library/Fonts/NewYork.ttf'
p1205
aS'/System/Library/Fonts/Supplemental/Verdana Bold.ttf'
p1206
aS'/System/Library/Fonts/Supplemental/NotoSansCarian-Regular.ttf'
p1207
aS'/System/Library/Fonts/Supplemental/STIXNonUni.otf'
p1208
aS'/System/Library/Fonts/SFNSMonoItalic.ttf'
p1209
aS'/System/Library/Fonts/Supplemental/STIXIntUpDBol.otf'
p1210
aS'/System/Library/Fonts/Supplemental/NotoSansOldItalic-Regular.ttf'
p1211
aS'/System/Library/Fonts/Supplemental/DIN Condensed Bold.ttf'
p1212
aS'/System/Library/Fonts/Supplemental/NotoSansLinearB-Regular.ttf'
p1213
aS'/System/Library/Fonts/Supplemental/NotoSansElbasan-Regular.ttf'
p1214
aS'/System/Library/Fonts/Supplemental/NotoSansGothic-Regular.ttf'
p1215
aS'/System/Library/Fonts/Supplemental/NISC18030.ttf'
p1216
aS'/System/Library/Fonts/Supplemental/STIXVar.otf'
p1217
aS'/System/Library/Fonts/Supplemental/NotoSansTagbanwa-Regular.ttf'
p1218
aS'/System/Library/Fonts/Supplemental/NotoSansDuployan-Regular.ttf'
p1219
aS'/System/Library/Fonts/Apple Braille.ttf'
p1220
aS'/System/Library/Fonts/Supplemental/NotoSansOlChiki-Regular.ttf'
p1221
aS'/System/Library/Fonts/Supplemental/Trebuchet MS Bold Italic.ttf'
p1222
aS'/System/Library/Fonts/Supplemental/STIXSizFourSymReg.otf'
p1223
aS'/System/Library/Fonts/Supplemental/Verdana Italic.ttf'
p1224
aS'/System/Library/Fonts/Supplemental/STIXIntDBol.otf'
p1225
aS'/System/Library/Fonts/Supplemental/Apple Chancery.ttf'
p1226
aS'/System/Library/Fonts/Supplemental/NotoSansBassaVah-Regular.ttf'
p1227
aS'/System/Library/Fonts/Supplemental/NotoSansTifinagh-Regular.ttf'
p1228
aS'/System/Library/Fonts/Supplemental/NotoSansSoraSompeng-Regular.ttf'
p1229
aS'/System/Library/Fonts/Supplemental/NotoSansLinearA-Regular.ttf'
p1230
aS'/System/Library/Fonts/Supplemental/NotoSansRejang-Regular.ttf'
p1231
aS'/System/Library/Fonts/Supplemental/NotoSansMeroitic-Regular.ttf'
p1232
aS'/System/Library/Fonts/Supplemental/NotoSansMro-Regular.ttf'
p1233
aS'/System/Library/Fonts/Supplemental/STIXNonUniBolIta.otf'
p1234
aS'/System/Library/Fonts/Supplemental/NotoSansChakma-Regular.ttf'
p1235
aS'/System/Library/Fonts/Supplemental/NotoSerifBalinese-Regular.ttf'
p1236
aS'/System/Library/Fonts/Supplemental/BigCaslon.ttf'
p1237
aS'/System/Library/Fonts/Supplemental/NotoSansKhojki-Regular.ttf'
p1238
aS'/System/Library/Fonts/Supplemental/NotoSansSharada-Regular.ttf'
p1239
aS'/System/Library/Fonts/Supplemental/NotoSansBatak-Regular.ttf'
p1240
aS'/System/Library/Fonts/Supplemental/Times New Roman Bold.ttf'
p1241
aS'/System/Library/Fonts/Supplemental/NotoSansPhoenician-Regular.ttf'
p1242
aS'/System/Library/Fonts/Supplemental/Arial Narrow Bold.ttf'
p1243
aS'/System/Library/Fonts/Supplemental/NotoSansHanifiRohingya-Regular.ttf'
p1244
aS'/System/Library/Fonts/Supplemental/Arial.ttf'
p1245
aS'/System/Library/Fonts/Supplemental/NotoSansHatran-Regular.ttf'
p1246
aS'/System/Library/Fonts/NewYorkItalic.ttf'
p1247
aS'/System/Library/Fonts/Apple Braille Pinpoint 6 Dot.ttf'
p1248
aS'/System/Library/Fonts/Supplemental/NotoSansImperialAramaic-Regular.ttf'
p1249
aS'/System/Library/Fonts/Supplemental/NotoSansInscriptionalPahlavi-Regular.ttf'
p1250
aS'/System/Library/Fonts/Symbol.ttf'
p1251
aS'/System/Library/Fonts/Supplemental/NotoSansNewa-Regular.ttf'
p1252
aS'/System/Library/Fonts/Supplemental/NotoSansModi-Regular.ttf'
p1253
aS'/System/Library/Fonts/Supplemental/Times New Roman Italic.ttf'
p1254
aS'/System/Library/Fonts/Supplemental/STIXIntDReg.otf'
p1255
aS'/System/Library/Fonts/Keyboard.ttf'
p1256
aS'/System/Library/Fonts/Supplemental/NotoSansYi-Regular.ttf'
p1257
aS'/System/Library/Fonts/Supplemental/Bodoni 72 Smallcaps Book.ttf'
p1258
aS'/System/Library/Fonts/Supplemental/NotoSansLepcha-Regular.ttf'
p1259
aS'/System/Library/Fonts/Supplemental/NotoSansNabataean-Regular.ttf'
p1260
aS'/System/Library/Fonts/Supplemental/NotoSansAdlam-Regular.ttf'
p1261
aS'/System/Library/Fonts/Supplemental/Tahoma.ttf'
p1262
aS'/System/Library/Fonts/Supplemental/NotoSansMongolian-Regular.ttf'
p1263
aS'/System/Library/Fonts/Supplemental/NotoSansBuginese-Regular.ttf'
p1264
aS'/System/Library/Fonts/Supplemental/NotoSansEgyptianHieroglyphs-Regular.ttf'
p1265
aS'/System/Library/Fonts/Supplemental/NotoSansOldNorthArabian-Regular.ttf'
p1266
aS'/System/Library/Fonts/Supplemental/NotoSansPauCinHau-Regular.ttf'
p1267
aS'/System/Library/Fonts/Supplemental/Wingdings 3.ttf'
p1268
aS'/System/Library/Fonts/SFCompactRounded.ttf'
p1269
aS'/System/Library/Fonts/Supplemental/NotoSansSylotiNagri-Regular.ttf'
p1270
aS'/System/Library/Fonts/Supplemental/Arial Rounded Bold.ttf'
p1271
aS'/System/Library/Fonts/Supplemental/NotoSansPsalterPahlavi-Regular.ttf'
p1272
aS'/System/Library/Fonts/Supplemental/Diwan Thuluth.ttf'
p1273
aS'/System/Library/Fonts/Supplemental/NotoSansManichaean-Regular.ttf'
p1274
aS'/System/Library/Fonts/Supplemental/NotoSansMahajani-Regular.ttf'
p1275
aS'/System/Library/Fonts/Supplemental/STIXIntSmReg.otf'
p1276
aS'/System/Library/Fonts/Supplemental/Times New Roman.ttf'
p1277
aS'/System/Library/Fonts/Supplemental/Kokonor.ttf'
p1278
aS'/System/Library/Fonts/Supplemental/Andale Mono.ttf'
p1279
aS'/System/Library/Fonts/Supplemental/NotoSansOldTurkic-Regular.ttf'
p1280
aS'/System/Library/Fonts/Supplemental/Brush Script.ttf'
p1281
aS'/System/Library/Fonts/Supplemental/NotoSansOldHungarian-Regular.ttf'
p1282
aS'/System/Library/Fonts/Supplemental/STIXSizFiveSymReg.otf'
p1283
aS'/System/Library/Fonts/Supplemental/STIXSizThreeSymReg.otf'
p1284
aS'/System/Library/Fonts/Supplemental/NotoSansKayahLi-Regular.ttf'
p1285
aS'/System/Library/Fonts/Supplemental/NotoSansWarangCiti-Regular.ttf'
p1286
aS'/System/Library/Fonts/Supplemental/STIXVarBol.otf'
p1287
aS'/System/Library/Fonts/Supplemental/Times New Roman Bold Italic.ttf'
p1288
aS'/System/Library/Fonts/Supplemental/Webdings.ttf'
p1289
aS'/System/Library/Fonts/Supplemental/NotoSansMandaic-Regular.ttf'
p1290
aS'/System/Library/Fonts/Supplemental/NotoSansShavian-Regular.ttf'
p1291
aS'/System/Library/Fonts/Supplemental/Bradley Hand Bold.ttf'
p1292
aS'/System/Library/Fonts/Supplemental/NotoSansTaiViet-Regular.ttf'
p1293
aS'/System/Library/Fonts/Supplemental/Arial Unicode.ttf'
p1294
aS'/System/Library/Fonts/Supplemental/NotoSansBamum-Regular.ttf'
p1295
aS'/System/Library/Fonts/Supplemental/NotoSansTirhuta-Regular.ttf'
p1296
aS'/System/Library/Fonts/SFCompactItalic.ttf'
p1297
aS'/System/Library/Fonts/Supplemental/NotoSansVai-Regular.ttf'
p1298
aS'/System/Library/Fonts/Supplemental/Mishafi Gold.ttf'
p1299
aS'/System/Library/Fonts/Supplemental/Arial Bold.ttf'
p1300
aS'/System/Library/Fonts/SFNSMono.ttf'
p1301
aS'/System/Library/Fonts/Supplemental/Courier New.ttf'
p1302
aS'/System/Library/Fonts/Supplemental/NotoSansLimbu-Regular.ttf'
p1303
aS'/System/Library/Fonts/Supplemental/Wingdings.ttf'
p1304
aS'/System/Library/Fonts/Supplemental/NotoSansRunic-Regular.ttf'
p1305
aS'/System/Library/Fonts/Supplemental/Verdana Bold Italic.ttf'
p1306
aS'/System/Library/Fonts/Supplemental/Trebuchet MS Italic.ttf'
p1307
aS'/System/Library/Fonts/Supplemental/STIXGeneralBol.otf'
p1308
aS'/System/Library/Fonts/Supplemental/Comic Sans MS Bold.ttf'
p1309
aS'/System/Library/Fonts/Supplemental/Farisi.ttf'
p1310
aS'/System/Library/Fonts/Supplemental/NotoSansSamaritan-Regular.ttf'
p1311
aS'/System/Library/Fonts/Supplemental/NotoSansTaiTham-Regular.ttf'
p1312
aS'/System/Library/Fonts/Supplemental/Sathu.ttf'
p1313
aS'/System/Library/Fonts/Supplemental/STIXSizOneSymReg.otf'
p1314
aS'/System/Library/Fonts/Supplemental/NotoSansNewTaiLue-Regular.ttf'
p1315
aS'/System/Library/Fonts/Supplemental/NotoSansLycian-Regular.ttf'
p1316
asS'_FontManager__default_weight'
p1317
g13
sS'_version'
p1318
I101
sS'ttf_lookup_cache'
p1319
(dp1320
sS'default_size'
p1321
NsS'defaultFont'
p1322
(dp1323
g1052
S'/System/Library/Frameworks/Python.framework/Versions/2.7/Extras/lib/python/matplotlib/mpl-data/fonts/afm/phvl8a.afm'
p1324
sg1054
g1084
ssS'afmfiles'
p1325
(lp1326
g1324
aS'/System/Library/Frameworks/Python.framework/Versions/2.7/Extras/lib/python/matplotlib/mpl-data/fonts/afm/putbi8a.afm'
p1327
aS'/System/Library/Frameworks/Python.framework/Versions/2.7/Extras/lib/python/matplotlib/mpl-data/fonts/afm/pcrb8a.afm'
p1328
aS'/System/Library/Frameworks/Python.framework/Versions/2.7/Extras/lib/python/matplotlib/mpl-data/fonts/afm/phvbo8a.afm'
p1329
aS'/System/Library/Frameworks/Python.framework/Versions/2.7/Extras/lib/python/matplotlib/mpl-data/fonts/afm/phvb8an.afm'
p1330
aS'/System/Library/Frameworks/Python.framework/Versions/2.7/Extras/lib/python/matplotlib/mpl-data/fonts/pdfcorefonts/Symbol.afm'
p1331
aS'/System/Library/Frameworks/Python.framework/Versions/2.7/Extras/lib/python/matplotlib/mpl-data/fonts/afm/phvbo8an.afm'
p1332
aS'/System/Library/Frameworks/Python.framework/Versions/2.7/Extras/lib/python/matplotlib/mpl-data/fonts/pdfcorefonts/Times-Roman.afm'
p1333
aS'/System/Library/Frameworks/Python.framework/Versions/2.7/Extras/lib/python/matplotlib/mpl-data/fonts/afm/pncr8a.afm'
p1334
aS'/System/Library/Frameworks/Python.framework/Versions/2.7/Extras/lib/python/matplotlib/mpl-data/fonts/afm/phvlo8a.afm'
p1335
aS'/System/Library/Frameworks/Python.framework/Versions/2.7/Extras/lib/python/matplotlib/mpl-data/fonts/pdfcorefonts/Times-Italic.afm'
p1336
aS'/System/Library/Frameworks/Python.framework/Versions/2.7/Extras/lib/python/matplotlib/mpl-data/fonts/pdfcorefonts/Helvetica.afm'
p1337
aS'/System/Library/Frameworks/Python.framework/Versions/2.7/Extras/lib/python/matplotlib/mpl-data/fonts/afm/phvr8an.afm'
p1338
aS'/System/Library/Frameworks/Python.framework/Versions/2.7/Extras/lib/python/matplotlib/mpl-data/fonts/pdfcorefonts/Courier-Bold.afm'
p1339
aS'/System/Library/Frameworks/Python.framework/Versions/2.7/Extras/lib/python/matplotlib/mpl-data/fonts/pdfcorefonts/Helvetica-Bold.afm'
p1340
aS'/System/Library/Frameworks/Python.framework/Versions/2.7/Extras/lib/python/matplotlib/mpl-data/fonts/afm/ptmb8a.afm'
p1341
aS'/System/Library/Frameworks/Python.framework/Versions/2.7/Extras/lib/python/matplotlib/mpl-data/fonts/afm/pagd8a.afm'
p1342
aS'/System/Library/Frameworks/Python.framework/Versions/2.7/Extras/lib/python/matplotlib/mpl-data/fonts/pdfcorefonts/ZapfDingbats.afm'
p1343
aS'/System/Library/Frameworks/Python.framework/Versions/2.7/Extras/lib/python/matplotlib/mpl-data/fonts/afm/putr8a.afm'
p1344
aS'/System/Library/Frameworks/Python.framework/Versions/2.7/Extras/lib/python/matplotlib/mpl-data/fonts/afm/cmtt10.afm'
p1345
aS'/System/Library/Frameworks/Python.framework/Versions/2.7/Extras/lib/python/matplotlib/mpl-data/fonts/afm/pagko8a.afm'
p1346
aS'/System/Library/Frameworks/Python.framework/Versions/2.7/Extras/lib/python/matplotlib/mpl-data/fonts/afm/ptmr8a.afm'
p1347
aS'/System/Library/Frameworks/Python.framework/Versions/2.7/Extras/lib/python/matplotlib/mpl-data/fonts/pdfcorefonts/Helvetica-Oblique.afm'
p1348
aS'/System/Library/Frameworks/Python.framework/Versions/2.7/Extras/lib/python/matplotlib/mpl-data/fonts/afm/cmr10.afm'
p1349
aS'/System/Library/Frameworks/Python.framework/Versions/2.7/Extras/lib/python/matplotlib/mpl-data/fonts/pdfcorefonts/Courier-Oblique.afm'
p1350
aS'/System/Library/Frameworks/Python.framework/Versions/2.7/Extras/lib/python/matplotlib/mpl-data/fonts/afm/pcrro8a.afm'
p1351
aS'/System/Library/Frameworks/Python.framework/Versions/2.7/Extras/lib/python/matplotlib/mpl-data/fonts/afm/pcrbo8a.afm'
p1352
aS'/System/Library/Frameworks/Python.framework/Versions/2.7/Extras/lib/python/matplotlib/mpl-data/fonts/pdfcorefonts/Courier.afm'
p1353
aS'/System/Library/Frameworks/Python.framework/Versions/2.7/Extras/lib/python/matplotlib/mpl-data/fonts/afm/ptmbi8a.afm'
p1354
aS'/System/Library/Frameworks/Python.framework/Versions/2.7/Extras/lib/python/matplotlib/mpl-data/fonts/afm/pagdo8a.afm'
p1355
aS'/System/Library/Frameworks/Python.framework/Versions/2.7/Extras/lib/python/matplotlib/mpl-data/fonts/pdfcorefonts/Times-BoldItalic.afm'
p1356
aS'/System/Library/Frameworks/Python.framework/Versions/2.7/Extras/lib/python/matplotlib/mpl-data/fonts/pdfcorefonts/Helvetica-BoldOblique.afm'
p1357
aS'/System/Library/Frameworks/Python.framework/Versions/2.7/Extras/lib/python/matplotlib/mpl-data/fonts/afm/pbkd8a.afm'
p1358
aS'/System/Library/Frameworks/Python.framework/Versions/2.7/Extras/lib/python/matplotlib/mpl-data/fonts/afm/pplr8a.afm'
p1359
aS'/System/Library/Frameworks/Python.framework/Versions/2.7/Extras/lib/python/matplotlib/mpl-data/fonts/afm/pbkdi8a.afm'
p1360
aS'/System/Library/Frameworks/Python.framework/Versions/2.7/Extras/lib/python/matplotlib/mpl-data/fonts/afm/pagk8a.afm'
p1361
aS'/System/Library/Frameworks/Python.framework/Versions/2.7/Extras/lib/python/matplotlib/mpl-data/fonts/afm/putri8a.afm'
p1362
aS'/System/Library/Frameworks/Python.framework/Versions/2.7/Extras/lib/python/matplotlib/mpl-data/fonts/afm/phvr8a.afm'
p1363
aS'/System/Library/Frameworks/Python.framework/Versions/2.7/Extras/lib/python/matplotlib/mpl-data/fonts/afm/pbkl8a.afm'
p1364
aS'/System/Library/Frameworks/Python.framework/Versions/2.7/Extras/lib/python/matplotlib/mpl-data/fonts/afm/phvro8a.afm'
p1365
aS'/System/Library/Frameworks/Python.framework/Versions/2.7/Extras/lib/python/matplotlib/mpl-data/fonts/afm/psyr.afm'
p1366
aS'/System/Library/Frameworks/Python.framework/Versions/2.7/Extras/lib/python/matplotlib/mpl-data/fonts/pdfcorefonts/Times-Bold.afm'
p1367
aS'/System/Library/Frameworks/Python.framework/Versions/2.7/Extras/lib/python/matplotlib/mpl-data/fonts/afm/pplri8a.afm'
p1368
aS'/System/Library/Frameworks/Python.framework/Versions/2.7/Extras/lib/python/matplotlib/mpl-data/fonts/afm/pncb8a.afm'
p1369
aS'/System/Library/Frameworks/Python.framework/Versions/2.7/Extras/lib/python/matplotlib/mpl-data/fonts/afm/putb8a.afm'
p1370
aS'/System/Library/Frameworks/Python.framework/Versions/2.7/Extras/lib/python/matplotlib/mpl-data/fonts/afm/pncbi8a.afm'
p1371
aS'/System/Library/Frameworks/Python.framework/Versions/2.7/Extras/lib/python/matplotlib/mpl-data/fonts/afm/phvb8a.afm'
p1372
aS'/System/Library/Frameworks/Python.framework/Versions/2.7/Extras/lib/python/matplotlib/mpl-data/fonts/afm/pbkli8a.afm'
p1373
aS'/System/Library/Frameworks/Python.framework/Versions/2.7/Extras/lib/python/matplotlib/mpl-data/fonts/afm/pcrr8a.afm'
p1374
aS'/System/Library/Frameworks/Python.framework/Versions/2.7/Extras/lib/python/matplotlib/mpl-data/fonts/afm/pzdr.afm'
p1375
aS'/System/Library/Frameworks/Python.framework/Versions/2.7/Extras/lib/python/matplotlib/mpl-data/fonts/afm/cmsy10.afm'
p1376
aS'/System/Library/Frameworks/Python.framework/Versions/2.7/Extras/lib/python/matplotlib/mpl-data/fonts/afm/cmmi10.afm'
p1377
aS'/System/Library/Frameworks/Python.framework/Versions/2.7/Extras/lib/python/matplotlib/mpl-data/fonts/afm/pplbi8a.afm'
p1378
aS'/System/Library/Frameworks/Python.framework/Versions/2.7/Extras/lib/python/matplotlib/mpl-data/fonts/afm/cmex10.afm'
p1379
aS'/System/Library/Frameworks/Python.framework/Versions/2.7/Extras/lib/python/matplotlib/mpl-data/fonts/afm/pncri8a.afm'
p1380
aS'/System/Library/Frameworks/Python.framework/Versions/2.7/Extras/lib/python/matplotlib/mpl-data/fonts/afm/ptmri8a.afm'
p1381
aS'/System/Library/Frameworks/Python.framework/Versions/2.7/Extras/lib/python/matplotlib/mpl-data/fonts/afm/pzcmi8a.afm'
p1382
aS'/System/Library/Frameworks/Python.framework/Versions/2.7/Extras/lib/python/matplotlib/mpl-data/fonts/pdfcorefonts/Courier-BoldOblique.afm'
p1383
aS'/System/Library/Frameworks/Python.framework/Versions/2.7/Extras/lib/python/matplotlib/mpl-data/fonts/afm/phvro8an.afm'
p1384
aS'/System/Library/Frameworks/Python.framework/Versions/2.7/Extras/lib/python/matplotlib/mpl-data/fonts/afm/pplb8a.afm'
p1385
asS'afmlist'
p1386
(lp1387
g7
(g8
g9
NtRp1388
(dp1389
g12
g13
sg14
S'Helvetica'
p1390
sg16
I200
sg17
g13
sg18
g13
sg19
g1324
sg21
g22
sbag7
(g8
g9
NtRp1391
(dp1392
g12
g74
sg14
S'Utopia'
p1393
sg16
I700
sg17
g13
sg18
g13
sg19
g1327
sg21
g22
sbag7
(g8
g9
NtRp1394
(dp1395
g12
g13
sg14
S'Courier'
p1396
sg16
I700
sg17
g13
sg18
g13
sg19
g1328
sg21
g22
sbag7
(g8
g9
NtRp1397
(dp1398
g12
g74
sg14
S'Helvetica'
p1399
sg16
I700
sg17
g13
sg18
g13
sg19
g1329
sg21
g22
sbag7
(g8
g9
NtRp1400
(dp1401
g12
g13
sg14
S'Helvetica'
p1402
sg16
I700
sg17
g172
sg18
g13
sg19
g1330
sg21
g22
sbag7
(g8
g9
NtRp1403
(dp1404
g12
g13
sg14
S'Symbol'
p1405
sg16
I500
sg17
g13
sg18
g13
sg19
g1331
sg21
g22
sbag7
(g8
g9
NtRp1406
(dp1407
g12
g74
sg14
S'Helvetica'
p1408
sg16
I700
sg17
g172
sg18
g13
sg19
g1332
sg21
g22
sbag7
(g8
g9
NtRp1409
(dp1410
g12
g13
sg14
S'Times'
p1411
sg16
I500
sg17
g13
sg18
g13
sg19
g1333
sg21
g22
sbag7
(g8
g9
NtRp1412
(dp1413
g12
g13
sg14
S'New Century Schoolbook'
p1414
sg16
I500
sg17
g13
sg18
g13
sg19
g1334
sg21
g22
sbag7
(g8
g9
NtRp1415
(dp1416
g12
g74
sg14
S'Helvetica'
p1417
sg16
I200
sg17
g13
sg18
g13
sg19
g1335
sg21
g22
sbag7
(g8
g9
NtRp1418
(dp1419
g12
g74
sg14
S'Times'
p1420
sg16
I500
sg17
g13
sg18
g13
sg19
g1336
sg21
g22
sbag7
(g8
g9
NtRp1421
(dp1422
g12
g13
sg14
S'Helvetica'
p1423
sg16
I500
sg17
g13
sg18
g13
sg19
g1337
sg21
g22
sbag7
(g8
g9
NtRp1424
(dp1425
g12
g13
sg14
S'Helvetica'
p1426
sg16
I500
sg17
g172
sg18
g13
sg19
g1338
sg21
g22
sbag7
(g8
g9
NtRp1427
(dp1428
g12
g13
sg14
S'Courier'
p1429
sg16
I700
sg17
g13
sg18
g13
sg19
g1339
sg21
g22
sbag7
(g8
g9
NtRp1430
(dp1431
g12
g13
sg14
S'Helvetica'
p1432
sg16
I700
sg17
g13
sg18
g13
sg19
g1340
sg21
g22
sbag7
(g8
g9
NtRp1433
(dp1434
g12
g13
sg14
S'Times'
p1435
sg16
I700
sg17
g13
sg18
g13
sg19
g1341
sg21
g22
sbag7
(g8
g9
NtRp1436
(dp1437
g12
g13
sg14
S'ITC Avant Garde Gothic'
p1438
sg16
I600
sg17
g13
sg18
g13
sg19
g1342
sg21
g22
sbag7
(g8
g9
NtRp1439
(dp1440
g12
g13
sg14
S'ZapfDingbats'
p1441
sg16
I500
sg17
g13
sg18
g13
sg19
g1343
sg21
g22
sbag7
(g8
g9
NtRp1442
(dp1443
g12
g13
sg14
S'Utopia'
p1444
sg16
I400
sg17
g13
sg18
g13
sg19
g1344
sg21
g22
sbag7
(g8
g9
NtRp1445
(dp1446
g12
g13
sg14
S'Computer Modern'
p1447
sg16
I500
sg17
g13
sg18
g13
sg19
g1345
sg21
g22
sbag7
(g8
g9
NtRp1448
(dp1449
g12
g74
sg14
S'ITC Avant Garde Gothic'
p1450
sg16
I400
sg17
g13
sg18
g13
sg19
g1346
sg21
g22
sbag7
(g8
g9
NtRp1451
(dp1452
g12
g13
sg14
S'Times'
p1453
sg16
I500
sg17
g13
sg18
g13
sg19
g1347
sg21
g22
sbag7
(g8
g9
NtRp1454
(dp1455
g12
g74
sg14
S'Helvetica'
p1456
sg16
I500
sg17
g13
sg18
g13
sg19
g1348
sg21
g22
sbag7
(g8
g9
NtRp1457
(dp1458
g12
g13
sg14
S'Computer Modern'
p1459
sg16
I500
sg17
g13
sg18
g13
sg19
g1349
sg21
g22
sbag7
(g8
g9
NtRp1460
(dp1461
g12
g74
sg14
S'Courier'
p1462
sg16
I500
sg17
g13
sg18
g13
sg19
g1350
sg21
g22
sbag7
(g8
g9
NtRp1463
(dp1464
g12
g74
sg14
S'Courier'
p1465
sg16
I500
sg17
g13
sg18
g13
sg19
g1351
sg21
g22
sbag7
(g8
g9
NtRp1466
(dp1467
g12
g74
sg14
S'Courier'
p1468
sg16
I700
sg17
g13
sg18
g13
sg19
g1352
sg21
g22
sbag7
(g8
g9
NtRp1469
(dp1470
g12
g13
sg14
S'Courier'
p1471
sg16
I500
sg17
g13
sg18
g13
sg19
g1353
sg21
g22
sbag7
(g8
g9
NtRp1472
(dp1473
g12
g74
sg14
S'Times'
p1474
sg16
I700
sg17
g13
sg18
g13
sg19
g1354
sg21
g22
sbag7
(g8
g9
NtRp1475
(dp1476
g12
g74
sg14
S'ITC Avant Garde Gothic'
p1477
sg16
I600
sg17
g13
sg18
g13
sg19
g1355
sg21
g22
sbag7
(g8
g9
NtRp1478
(dp1479
g12
g74
sg14
S'Times'
p1480
sg16
I700
sg17
g13
sg18
g13
sg19
g1356
sg21
g22
sbag7
(g8
g9
NtRp1481
(dp1482
g12
g74
sg14
S'Helvetica'
p1483
sg16
I700
sg17
g13
sg18
g13
sg19
g1357
sg21
g22
sbag7
(g8
g9
NtRp1484
(dp1485
g12
g13
sg14
S'ITC Bookman'
p1486
sg16
I600
sg17
g13
sg18
g13
sg19
g1358
sg21
g22
sbag7
(g8
g9
NtRp1487
(dp1488
g12
g13
sg14
S'Palatino'
p1489
sg16
I500
sg17
g13
sg18
g13
sg19
g1359
sg21
g22
sbag7
(g8
g9
NtRp1490
(dp1491
g12
g74
sg14
S'ITC Bookman'
p1492
sg16
I600
sg17
g13
sg18
g13
sg19
g1360
sg21
g22
sbag7
(g8
g9
NtRp1493
(dp1494
g12
g13
sg14
S'ITC Avant Garde Gothic'
p1495
sg16
I400
sg17
g13
sg18
g13
sg19
g1361
sg21
g22
sbag7
(g8
g9
NtRp1496
(dp1497
g12
g74
sg14
S'Utopia'
p1498
sg16
I400
sg17
g13
sg18
g13
sg19
g1362
sg21
g22
sbag7
(g8
g9
NtRp1499
(dp1500
g12
g13
sg14
S'Helvetica'
p1501
sg16
I500
sg17
g13
sg18
g13
sg19
g1363
sg21
g22
sbag7
(g8
g9
NtRp1502
(dp1503
g12
g13
sg14
S'ITC Bookman'
p1504
sg16
I200
sg17
g13
sg18
g13
sg19
g1364
sg21
g22
sbag7
(g8
g9
NtRp1505
(dp1506
g12
g74
sg14
S'Helvetica'
p1507
sg16
I500
sg17
g13
sg18
g13
sg19
g1365
sg21
g22
sbag7
(g8
g9
NtRp1508
(dp1509
g12
g13
sg14
S'Symbol'
p1510
sg16
I500
sg17
g13
sg18
g13
sg19
g1366
sg21
g22
sbag7
(g8
g9
NtRp1511
(dp1512
g12
g13
sg14
S'Times'
p1513
sg16
I700
sg17
g13
sg18
g13
sg19
g1367
sg21
g22
sbag7
(g8
g9
NtRp1514
(dp1515
g12
g74
sg14
S'Palatino'
p1516
sg16
I500
sg17
g13
sg18
g13
sg19
g1368
sg21
g22
sbag7
(g8
g9
NtRp1517
(dp1518
g12
g13
sg14
S'New Century Schoolbook'
p1519
sg16
I700
sg17
g13
sg18
g13
sg19
g1369
sg21
g22
sbag7
(g8
g9
NtRp1520
(dp1521
g12
g13
sg14
S'Utopia'
p1522
sg16
I700
sg17
g13
sg18
g13
sg19
g1370
sg21
g22
sbag7
(g8
g9
NtRp1523
(dp1524
g12
g74
sg14
S'New Century Schoolbook'
p1525
sg16
I700
sg17
g13
sg18
g13
sg19
g1371
sg21
g22
sbag7
(g8
g9
NtRp1526
(dp1527
g12
g13
sg14
S'Helvetica'
p1528
sg16
I700
sg17
g13
sg18
g13
sg19
g1372
sg21
g22
sbag7
(g8
g9
NtRp1529
(dp1530
g12
g74
sg14
S'ITC Bookman'
p1531
sg16
I200
sg17
g13
sg18
g13
sg19
g1373
sg21
g22
sbag7
(g8
g9
NtRp1532
(dp1533
g12
g13
sg14
S'Courier'
p1534
sg16
I500
sg17
g13
sg18
g13
sg19
g1374
sg21
g22
sbag7
(g8
g9
NtRp1535
(dp1536
g12
g13
sg14
S'ITC Zapf Dingbats'
p1537
sg16
I500
sg17
g13
sg18
g13
sg19
g1375
sg21
g22
sbag7
(g8
g9
NtRp1538
(dp1539
g12
g74
sg14
S'Computer Modern'
p1540
sg16
I500
sg17
g13
sg18
g13
sg19
g1376
sg21
g22
sbag7
(g8
g9
NtRp1541
(dp1542
g12
g74
sg14
S'Computer Modern'
p1543
sg16
I500
sg17
g13
sg18
g13
sg19
g1377
sg21
g22
sbag7
(g8
g9
NtRp1544
(dp1545
g12
g74
sg14
S'Palatino'
p1546
sg16
I700
sg17
g13
sg18
g13
sg19
g1378
sg21
g22
sbag7
(g8
g9
NtRp1547
(dp1548
g12
g13
sg14
S'Computer Modern'
p1549
sg16
I500
sg17
g13
sg18
g13
sg19
g1379
sg21
g22
sbag7
(g8
g9
NtRp1550
(dp1551
g12
g74
sg14
S'New Century Schoolbook'
p1552
sg16
I500
sg17
g13
sg18
g13
sg19
g1380
sg21
g22
sbag7
(g8
g9
NtRp1553
(dp1554
g12
g74
sg14
S'Times'
p1555
sg16
I500
sg17
g13
sg18
g13
sg19
g1381
sg21
g22
sbag7
(g8
g9
NtRp1556
(dp1557
g12
g74
sg14
S'ITC Zapf Chancery'
p1558
sg16
I500
sg17
g13
sg18
g13
sg19
g1382
sg21
g22
sbag7
(g8
g9
NtRp1559
(dp1560
g12
g74
sg14
S'Courier'
p1561
sg16
I700
sg17
g13
sg18
g13
sg19
g1383
sg21
g22
sbag7
(g8
g9
NtRp1562
(dp1563
g12
g74
sg14
S'Helvetica'
p1564
sg16
I500
sg17
g172
sg18
g13
sg19
g1384
sg21
g22
sbag7
(g8
g9
NtRp1565
(dp1566
g12
g13
sg14
S'Palatino'
p1567
sg16
I700
sg17
g13
sg18
g13
sg19
g1385
sg21
g22
sbasb.